(dp1
S'output'
p2
S"<type 'exceptions.Exception'> Validation error, field:option_gender <class 'pydal.validators.IS_NOT_EMPTY'>"
p3
sS'layer'
p4
S'/Users/nic/Dev/web2py/applications/test/controllers/appadmin.py'
p5
sS'code'
p6
S'<code object <module> at 0x10aa18030, file "/Users/nic/Dev/web2py/applications/test/controllers/appadmin.py", line 7>'
p7
sS'snapshot'
p8
(dp9
S'exception'
p10
(dp11
S'__getslice__'
p12
S"<method-wrapper '__getslice__' of exceptions.Exception object>"
p13
sS'__str__'
p14
S"<method-wrapper '__str__' of exceptions.Exception object>"
p15
sS'__reduce__'
p16
S'<built-in method __reduce__ of exceptions.Exception object>'
p17
sS'__dict__'
p18
S'{}'
p19
sS'message'
p20
S'"Validation error, field:option_gender <class \'pydal.validators.IS_NOT_EMPTY\'>"'
p21
sS'__sizeof__'
p22
S'<built-in method __sizeof__ of exceptions.Exception object>'
p23
sS'__init__'
p24
S"<method-wrapper '__init__' of exceptions.Exception object>"
p25
sS'__setattr__'
p26
S"<method-wrapper '__setattr__' of exceptions.Exception object>"
p27
sS'__reduce_ex__'
p28
S'<built-in method __reduce_ex__ of exceptions.Exception object>'
p29
sS'__new__'
p30
S'<built-in method __new__ of type object>'
p31
sS'__format__'
p32
S'<built-in method __format__ of exceptions.Exception object>'
p33
sS'__class__'
p34
S"<type 'exceptions.Exception'>"
p35
sS'__doc__'
p36
S"'Common base class for all non-exit exceptions.'"
p37
sS'__getitem__'
p38
S"<method-wrapper '__getitem__' of exceptions.Exception object>"
p39
sS'__setstate__'
p40
S'<built-in method __setstate__ of exceptions.Exception object>'
p41
sS'__getattribute__'
p42
S"<method-wrapper '__getattribute__' of exceptions.Exception object>"
p43
sS'args'
p44
S'("Validation error, field:option_gender <class \'pydal.validators.IS_NOT_EMPTY\'>",)'
p45
sS'__subclasshook__'
p46
S'<built-in method __subclasshook__ of type object>'
p47
sS'__unicode__'
p48
S'<built-in method __unicode__ of exceptions.Exception object>'
p49
sS'__delattr__'
p50
S"<method-wrapper '__delattr__' of exceptions.Exception object>"
p51
sS'__repr__'
p52
S"<method-wrapper '__repr__' of exceptions.Exception object>"
p53
sS'__hash__'
p54
S"<method-wrapper '__hash__' of exceptions.Exception object>"
p55
ssS'evalue'
p56
S"Validation error, field:option_gender <class 'pydal.validators.IS_NOT_EMPTY'>"
p57
sS'request'
p58
cgluon.html
XML_unpickle
p59
(S's\x10|\x00\x00<div><table><tr><td style="font-weight:bold;vertical-align:top;">ajax</td><td style="vertical-align:top;">:</td><td><div>False</div></td></tr><tr><td style="font-weight:bold;vertical-align:top;">application</td><td style="vertical-align:top;">:</td><td><div>test</div></td></tr><tr><td style="font-weight:bold;vertical-align:top;">args</td><td style="vertical-align:top;">:</td><td><div><table><tr><td><div>db</div></td></tr><tr><td><div>gender</div></td></tr></table></div></td></tr><tr><td style="font-weight:bold;vertical-align:top;">cid</td><td style="vertical-align:top;">:</td><td><div>None</div></td></tr><tr><td style="font-weight:bold;vertical-align:top;">client</td><td style="vertical-align:top;">:</td><td><div>127.0.0.1</div></td></tr><tr><td style="font-weight:bold;vertical-align:top;">controller</td><td style="vertical-align:top;">:</td><td><div>appadmin</div></td></tr><tr><td style="font-weight:bold;vertical-align:top;">cookies</td><td style="vertical-align:top;">:</td><td><div><table><tr><td style="font-weight:bold;vertical-align:top;">session_id_admin</td><td style="vertical-align:top;">:</td><td><div>127.0.0.1-3b2ec212-1560-4971-a9aa-aa269d6b38e5<table><tr><td style="font-weight:bold;vertical-align:top;">comment</td><td style="vertical-align:top;">:</td><td><div></div></td></tr><tr><td style="font-weight:bold;vertical-align:top;">domain</td><td style="vertical-align:top;">:</td><td><div></div></td></tr><tr><td style="font-weight:bold;vertical-align:top;">expires</td><td style="vertical-align:top;">:</td><td><div></div></td></tr><tr><td style="font-weight:bold;vertical-align:top;">httponly</td><td style="vertical-align:top;">:</td><td><div></div></td></tr><tr><td style="font-weight:bold;vertical-align:top;">max-age</td><td style="vertical-align:top;">:</td><td><div></div></td></tr><tr><td style="font-weight:bold;vertical-align:top;">path</td><td style="vertical-align:top;">:</td><td><div></div></td></tr><tr><td style="font-weight:bold;vertical-align:top;">samesite</td><td style="vertical-align:top;">:</td><td><div></div></td></tr><tr><td style="font-weight:bold;vertical-align:top;">secure</td><td style="vertical-align:top;">:</td><td><div></div></td></tr><tr><td style="font-weight:bold;vertical-align:top;">version</td><td style="vertical-align:top;">:</td><td><div></div></td></tr></table></div></td></tr><tr><td style="font-weight:bold;vertical-align:top;">session_id_biodiversa_soniline</td><td style="vertical-align:top;">:</td><td><div>127.0.0.1-88c39e2b-a2fd-4963-ab72-c6daa8978278<table><tr><td style="font-weight:bold;vertical-align:top;">comment</td><td style="vertical-align:top;">:</td><td><div></div></td></tr><tr><td style="font-weight:bold;vertical-align:top;">domain</td><td style="vertical-align:top;">:</td><td><div></div></td></tr><tr><td style="font-weight:bold;vertical-align:top;">expires</td><td style="vertical-align:top;">:</td><td><div></div></td></tr><tr><td style="font-weight:bold;vertical-align:top;">httponly</td><td style="vertical-align:top;">:</td><td><div></div></td></tr><tr><td style="font-weight:bold;vertical-align:top;">max-age</td><td style="vertical-align:top;">:</td><td><div></div></td></tr><tr><td style="font-weight:bold;vertical-align:top;">path</td><td style="vertical-align:top;">:</td><td><div></div></td></tr><tr><td style="font-weight:bold;vertical-align:top;">samesite</td><td style="vertical-align:top;">:</td><td><div></div></td></tr><tr><td style="font-weight:bold;vertical-align:top;">secure</td><td style="vertical-align:top;">:</td><td><div></div></td></tr><tr><td style="font-weight:bold;vertical-align:top;">version</td><td style="vertical-align:top;">:</td><td><div></div></td></tr></table></div></td></tr><tr><td style="font-weight:bold;vertical-align:top;">session_id_sonoline</td><td style="vertical-align:top;">:</td><td><div>127.0.0.1-671dc851-c68e-43fc-89c2-9cc4cf9460bd<table><tr><td style="font-weight:bold;vertical-align:top;">comment</td><td style="vertical-align:top;">:</td><td><div></div></td></tr><tr><td style="font-weight:bold;vertical-align:top;">domain</td><td style="vertical-align:top;">:</td><td><div></div></td></tr><tr><td style="font-weight:bold;vertical-align:top;">expires</td><td style="vertical-align:top;">:</td><td><div></div></td></tr><tr><td style="font-weight:bold;vertical-align:top;">httponly</td><td style="vertical-align:top;">:</td><td><div></div></td></tr><tr><td style="font-weight:bold;vertical-align:top;">max-age</td><td style="vertical-align:top;">:</td><td><div></div></td></tr><tr><td style="font-weight:bold;vertical-align:top;">path</td><td style="vertical-align:top;">:</td><td><div></div></td></tr><tr><td style="font-weight:bold;vertical-align:top;">samesite</td><td style="vertical-align:top;">:</td><td><div></div></td></tr><tr><td style="font-weight:bold;vertical-align:top;">secure</td><td style="vertical-align:top;">:</td><td><div></div></td></tr><tr><td style="font-weight:bold;vertical-align:top;">version</td><td style="vertical-align:top;">:</td><td><div></div></td></tr></table></div></td></tr><tr><td style="font-weight:bold;vertical-align:top;">session_id_sonoline_player</td><td style="vertical-align:top;">:</td><td><div>127.0.0.1-e1927753-f3ea-4aa4-a5c3-6b1e4a994650<table><tr><td style="font-weight:bold;vertical-align:top;">comment</td><td style="vertical-align:top;">:</td><td><div></div></td></tr><tr><td style="font-weight:bold;vertical-align:top;">domain</td><td style="vertical-align:top;">:</td><td><div></div></td></tr><tr><td style="font-weight:bold;vertical-align:top;">expires</td><td style="vertical-align:top;">:</td><td><div></div></td></tr><tr><td style="font-weight:bold;vertical-align:top;">httponly</td><td style="vertical-align:top;">:</td><td><div></div></td></tr><tr><td style="font-weight:bold;vertical-align:top;">max-age</td><td style="vertical-align:top;">:</td><td><div></div></td></tr><tr><td style="font-weight:bold;vertical-align:top;">path</td><td style="vertical-align:top;">:</td><td><div></div></td></tr><tr><td style="font-weight:bold;vertical-align:top;">samesite</td><td style="vertical-align:top;">:</td><td><div></div></td></tr><tr><td style="font-weight:bold;vertical-align:top;">secure</td><td style="vertical-align:top;">:</td><td><div></div></td></tr><tr><td style="font-weight:bold;vertical-align:top;">version</td><td style="vertical-align:top;">:</td><td><div></div></td></tr></table></div></td></tr><tr><td style="font-weight:bold;vertical-align:top;">session_id_test</td><td style="vertical-align:top;">:</td><td><div>127.0.0.1-49d23944-9530-407b-9625-e4daf5fa5af5<table><tr><td style="font-weight:bold;vertical-align:top;">comment</td><td style="vertical-align:top;">:</td><td><div></div></td></tr><tr><td style="font-weight:bold;vertical-align:top;">domain</td><td style="vertical-align:top;">:</td><td><div></div></td></tr><tr><td style="font-weight:bold;vertical-align:top;">expires</td><td style="vertical-align:top;">:</td><td><div></div></td></tr><tr><td style="font-weight:bold;vertical-align:top;">httponly</td><td style="vertical-align:top;">:</td><td><div></div></td></tr><tr><td style="font-weight:bold;vertical-align:top;">max-age</td><td style="vertical-align:top;">:</td><td><div></div></td></tr><tr><td style="font-weight:bold;vertical-align:top;">path</td><td style="vertical-align:top;">:</td><td><div></div></td></tr><tr><td style="font-weight:bold;vertical-align:top;">samesite</td><td style="vertical-align:top;">:</td><td><div></div></td></tr><tr><td style="font-weight:bold;vertical-align:top;">secure</td><td style="vertical-align:top;">:</td><td><div></div></td></tr><tr><td style="font-weight:bold;vertical-align:top;">version</td><td style="vertical-align:top;">:</td><td><div></div></td></tr></table></div></td></tr><tr><td style="font-weight:bold;vertical-align:top;">session_id_welcome</td><td style="vertical-align:top;">:</td><td><div>127.0.0.1-0879dd4f-c29f-4d3f-aa88-f2a12201b06e<table><tr><td style="font-weight:bold;vertical-align:top;">comment</td><td style="vertical-align:top;">:</td><td><div></div></td></tr><tr><td style="font-weight:bold;vertical-align:top;">domain</td><td style="vertical-align:top;">:</td><td><div></div></td></tr><tr><td style="font-weight:bold;vertical-align:top;">expires</td><td style="vertical-align:top;">:</td><td><div></div></td></tr><tr><td style="font-weight:bold;vertical-align:top;">httponly</td><td style="vertical-align:top;">:</td><td><div></div></td></tr><tr><td style="font-weight:bold;vertical-align:top;">max-age</td><td style="vertical-align:top;">:</td><td><div></div></td></tr><tr><td style="font-weight:bold;vertical-align:top;">path</td><td style="vertical-align:top;">:</td><td><div></div></td></tr><tr><td style="font-weight:bold;vertical-align:top;">samesite</td><td style="vertical-align:top;">:</td><td><div></div></td></tr><tr><td style="font-weight:bold;vertical-align:top;">secure</td><td style="vertical-align:top;">:</td><td><div></div></td></tr><tr><td style="font-weight:bold;vertical-align:top;">version</td><td style="vertical-align:top;">:</td><td><div></div></td></tr></table></div></td></tr></table></div></td></tr><tr><td style="font-weight:bold;vertical-align:top;">env</td><td style="vertical-align:top;">:</td><td><div><table><tr><td style="font-weight:bold;vertical-align:top;">CONTENT_LENGTH</td><td style="vertical-align:top;">:</td><td><div>392</div></td></tr><tr><td style="font-weight:bold;vertical-align:top;">CONTENT_TYPE</td><td style="vertical-align:top;">:</td><td><div>multipart/form-data; boundary=----WebKitFormBoundaryUunZnVl162W2yxMp</div></td></tr><tr><td style="font-weight:bold;vertical-align:top;">HTTP_ACCEPT</td><td style="vertical-align:top;">:</td><td><div>text/html,application/xhtml+xml,application/xml;q=0.9,image/webp,image/apng,*/*;q=0.8,application/signed-exchange;v=b3</div></td></tr><tr><td style="font-weight:bold;vertical-align:top;">HTTP_ACCEPT_ENCODING</td><td style="vertical-align:top;">:</td><td><div>gzip, deflate, br</div></td></tr><tr><td style="font-weight:bold;vertical-align:top;">HTTP_ACCEPT_LANGUAGE</td><td style="vertical-align:top;">:</td><td><div>es-419,es;q=0.9</div></td></tr><tr><td style="font-weight:bold;vertical-align:top;">HTTP_CACHE_CONTROL</td><td style="vertical-align:top;">:</td><td><div>max-age=0</div></td></tr><tr><td style="font-weight:bold;vertical-align:top;">HTTP_CONNECTION</td><td style="vertical-align:top;">:</td><td><div>keep-alive</div></td></tr><tr><td style="font-weight:bold;vertical-align:top;">HTTP_CONTENT_LENGTH</td><td style="vertical-align:top;">:</td><td><div>392</div></td></tr><tr><td style="font-weight:bold;vertical-align:top;">HTTP_CONTENT_TYPE</td><td style="vertical-align:top;">:</td><td><div>multipart/form-data; boundary=----WebKitFormBoundaryUunZnVl162W2yxMp</div></td></tr><tr><td style="font-weight:bold;vertical-align:top;">HTTP_COOKIE</td><td style="vertical-align:top;">:</td><td><div>session_id_sonoline_player=127.0.0.1-e1927753-f3ea-4aa4-a5c3-6b1e4a994650; session_id_admin=127.0.0.1-3b2ec212-1560-4971-a9aa-aa269d6b38e5; session_id_sonoline=127.0.0.1-671dc851-c68e-43fc-89c2-9cc4cf9460bd; session_id_welcome=127.0.0.1-0879dd4f-c29f-4d3f-aa88-f2a12201b06e; session_id_biodiversa_soniline=127.0.0.1-88c39e2b-a2fd-4963-ab72-c6daa8978278; session_id_test=127.0.0.1-49d23944-9530-407b-9625-e4daf5fa5af5</div></td></tr><tr><td style="font-weight:bold;vertical-align:top;">HTTP_HOST</td><td style="vertical-align:top;">:</td><td><div>127.0.0.1:8000</div></td></tr><tr><td style="font-weight:bold;vertical-align:top;">HTTP_ORIGIN</td><td style="vertical-align:top;">:</td><td><div>http://127.0.0.1:8000</div></td></tr><tr><td style="font-weight:bold;vertical-align:top;">HTTP_REFERER</td><td style="vertical-align:top;">:</td><td><div>http://127.0.0.1:8000/test/appadmin/insert/db/gender</div></td></tr><tr><td style="font-weight:bold;vertical-align:top;">HTTP_SEC_FETCH_MODE</td><td style="vertical-align:top;">:</td><td><div>navigate</div></td></tr><tr><td style="font-weight:bold;vertical-align:top;">HTTP_SEC_FETCH_SITE</td><td style="vertical-align:top;">:</td><td><div>same-origin</div></td></tr><tr><td style="font-weight:bold;vertical-align:top;">HTTP_SEC_FETCH_USER</td><td style="vertical-align:top;">:</td><td><div>?1</div></td></tr><tr><td style="font-weight:bold;vertical-align:top;">HTTP_UPGRADE_INSECURE_REQUESTS</td><td style="vertical-align:top;">:</td><td><div>1</div></td></tr><tr><td style="font-weight:bold;vertical-align:top;">HTTP_USER_AGENT</td><td style="vertical-align:top;">:</td><td><div>Mozilla/5.0 (Macintosh; Intel Mac OS X 10_14_5) AppleWebKit/537.36 (KHTML, like Gecko) Chrome/76.0.3809.100 Safari/537.36</div></td></tr><tr><td style="font-weight:bold;vertical-align:top;">PATH_INFO</td><td style="vertical-align:top;">:</td><td><div>/test/appadmin/insert/db/gender</div></td></tr><tr><td style="font-weight:bold;vertical-align:top;">QUERY_STRING</td><td style="vertical-align:top;">:</td><td><div></div></td></tr><tr><td style="font-weight:bold;vertical-align:top;">REMOTE_ADDR</td><td style="vertical-align:top;">:</td><td><div>127.0.0.1</div></td></tr><tr><td style="font-weight:bold;vertical-align:top;">REMOTE_PORT</td><td style="vertical-align:top;">:</td><td><div>55663</div></td></tr><tr><td style="font-weight:bold;vertical-align:top;">REQUEST_METHOD</td><td style="vertical-align:top;">:</td><td><div>POST</div></td></tr><tr><td style="font-weight:bold;vertical-align:top;">SCRIPT_NAME</td><td style="vertical-align:top;">:</td><td><div></div></td></tr><tr><td style="font-weight:bold;vertical-align:top;">SERVER_NAME</td><td style="vertical-align:top;">:</td><td><div>MacBook-Air-de-Nic.local</div></td></tr><tr><td style="font-weight:bold;vertical-align:top;">SERVER_PORT</td><td style="vertical-align:top;">:</td><td><div>8000</div></td></tr><tr><td style="font-weight:bold;vertical-align:top;">SERVER_PROTOCOL</td><td style="vertical-align:top;">:</td><td><div>HTTP/1.1</div></td></tr><tr><td style="font-weight:bold;vertical-align:top;">SERVER_SOFTWARE</td><td style="vertical-align:top;">:</td><td><div>Rocket 1.2.6</div></td></tr><tr><td style="font-weight:bold;vertical-align:top;">app_folders</td><td style="vertical-align:top;">:</td><td><div>set([&#x27;/Users/nic/Dev/web2py/applications/admin&#x27;, &#x27;/Users/nic/Dev/web2py/applications/test&#x27;])</div></td></tr><tr><td style="font-weight:bold;vertical-align:top;">applications_parent</td><td style="vertical-align:top;">:</td><td><div>/Users/nic/Dev/web2py</div></td></tr><tr><td style="font-weight:bold;vertical-align:top;">cmd_args</td><td style="vertical-align:top;">:</td><td><div><table></table></div></td></tr><tr><td style="font-weight:bold;vertical-align:top;">cmd_options</td><td style="vertical-align:top;">:</td><td><div>&lt;Values at 0x1077064d0: {&#x27;verbose&#x27;: False, &#x27;ip&#x27;: &#x27;127.0.0.1&#x27;, &#x27;debuglevel&#x27;: 30, &#x27;with_scheduler&#x27;: False, &#x27;shutdown_timeout&#x27;: 5, &#x27;taskbar&#x27;: False, &#x27;with_coverage&#x27;: False, &#x27;pid_filename&#x27;: &#x27;httpserver.pid&#x27;, &#x27;maxthreads&#x27;: None, &#x27;softcron&#x27;: False, &#x27;server_name&#x27;: &#x27;MacBook-Air-de-Nic.local&#x27;, &#x27;bpython&#x27;: False, &#x27;nogui&#x27;: False, &#x27;port&#x27;: 8000, &#x27;print_errors&#x27;: False, &#x27;extcron&#x27;: False, &#x27;runcron&#x27;: False, &#x27;run_system_tests&#x27;: False, &#x27;test&#x27;: None, &#x27;folder&#x27;: &#x27;/Users/nic/Dev/web2py&#x27;, &#x27;config&#x27;: &#x27;&#x27;, &#x27;minthreads&#x27;: None, &#x27;shell&#x27;: None, &#x27;run&#x27;: &#x27;&#x27;, &#x27;log_filename&#x27;: &#x27;httpserver.log&#x27;, &#x27;profiler_dir&#x27;: None, &#x27;args&#x27;: [], &#x27;socket_timeout&#x27;: 5, &#x27;ssl_ca_certificate&#x27;: None, &#x27;scheduler&#x27;: None, &#x27;interfaces&#x27;: None, &#x27;ssl_private_key&#x27;: &#x27;&#x27;, &#x27;gae&#x27;: None, &#x27;password&#x27;: &#x27;******&#x27;, &#x27;request_queue_size&#x27;: 5, &#x27;ssl_certificate&#x27;: &#x27;&#x27;, &#x27;cronjob&#x27;: False, &#x27;numthreads&#x27;: None, &#x27;quiet&#x27;: False, &#x27;import_models&#x27;: False, &#x27;timeout&#x27;: 10, &#x27;plain&#x27;: False, &#x27;nobanner&#x27;: False}&gt;</div></td></tr><tr><td style="font-weight:bold;vertical-align:top;">content_length</td><td style="vertical-align:top;">:</td><td><div>392</div></td></tr><tr><td style="font-weight:bold;vertical-align:top;">content_type</td><td style="vertical-align:top;">:</td><td><div>multipart/form-data; boundary=----WebKitFormBoundaryUunZnVl162W2yxMp</div></td></tr><tr><td style="font-weight:bold;vertical-align:top;">db_sessions</td><td style="vertical-align:top;">:</td><td><div>set([])</div></td></tr><tr><td style="font-weight:bold;vertical-align:top;">debugging</td><td style="vertical-align:top;">:</td><td><div>False</div></td></tr><tr><td style="font-weight:bold;vertical-align:top;">gluon_parent</td><td style="vertical-align:top;">:</td><td><div>/Users/nic/Dev/web2py</div></td></tr><tr><td style="font-weight:bold;vertical-align:top;">http_accept</td><td style="vertical-align:top;">:</td><td><div>text/html,application/xhtml+xml,application/xml;q=0.9,image/webp,image/apng,*/*;q=0.8,application/signed-exchange;v=b3</div></td></tr><tr><td style="font-weight:bold;vertical-align:top;">http_accept_encoding</td><td style="vertical-align:top;">:</td><td><div>gzip, deflate, br</div></td></tr><tr><td style="font-weight:bold;vertical-align:top;">http_accept_language</td><td style="vertical-align:top;">:</td><td><div>es-419,es;q=0.9</div></td></tr><tr><td style="font-weight:bold;vertical-align:top;">http_cache_control</td><td style="vertical-align:top;">:</td><td><div>max-age=0</div></td></tr><tr><td style="font-weight:bold;vertical-align:top;">http_connection</td><td style="vertical-align:top;">:</td><td><div>keep-alive</div></td></tr><tr><td style="font-weight:bold;vertical-align:top;">http_content_length</td><td style="vertical-align:top;">:</td><td><div>392</div></td></tr><tr><td style="font-weight:bold;vertical-align:top;">http_content_type</td><td style="vertical-align:top;">:</td><td><div>multipart/form-data; boundary=----WebKitFormBoundaryUunZnVl162W2yxMp</div></td></tr><tr><td style="font-weight:bold;vertical-align:top;">http_cookie</td><td style="vertical-align:top;">:</td><td><div>session_id_sonoline_player=127.0.0.1-e1927753-f3ea-4aa4-a5c3-6b1e4a994650; session_id_admin=127.0.0.1-3b2ec212-1560-4971-a9aa-aa269d6b38e5; session_id_sonoline=127.0.0.1-671dc851-c68e-43fc-89c2-9cc4cf9460bd; session_id_welcome=127.0.0.1-0879dd4f-c29f-4d3f-aa88-f2a12201b06e; session_id_biodiversa_soniline=127.0.0.1-88c39e2b-a2fd-4963-ab72-c6daa8978278; session_id_test=127.0.0.1-49d23944-9530-407b-9625-e4daf5fa5af5</div></td></tr><tr><td style="font-weight:bold;vertical-align:top;">http_host</td><td style="vertical-align:top;">:</td><td><div>127.0.0.1:8000</div></td></tr><tr><td style="font-weight:bold;vertical-align:top;">http_origin</td><td style="vertical-align:top;">:</td><td><div>http://127.0.0.1:8000</div></td></tr><tr><td style="font-weight:bold;vertical-align:top;">http_referer</td><td style="vertical-align:top;">:</td><td><div>http://127.0.0.1:8000/test/appadmin/insert/db/gender</div></td></tr><tr><td style="font-weight:bold;vertical-align:top;">http_sec_fetch_mode</td><td style="vertical-align:top;">:</td><td><div>navigate</div></td></tr><tr><td style="font-weight:bold;vertical-align:top;">http_sec_fetch_site</td><td style="vertical-align:top;">:</td><td><div>same-origin</div></td></tr><tr><td style="font-weight:bold;vertical-align:top;">http_sec_fetch_user</td><td style="vertical-align:top;">:</td><td><div>?1</div></td></tr><tr><td style="font-weight:bold;vertical-align:top;">http_upgrade_insecure_requests</td><td style="vertical-align:top;">:</td><td><div>1</div></td></tr><tr><td style="font-weight:bold;vertical-align:top;">http_user_agent</td><td style="vertical-align:top;">:</td><td><div>Mozilla/5.0 (Macintosh; Intel Mac OS X 10_14_5) AppleWebKit/537.36 (KHTML, like Gecko) Chrome/76.0.3809.100 Safari/537.36</div></td></tr><tr><td style="font-weight:bold;vertical-align:top;">is_jython</td><td style="vertical-align:top;">:</td><td><div>False</div></td></tr><tr><td style="font-weight:bold;vertical-align:top;">is_py2</td><td style="vertical-align:top;">:</td><td><div>True</div></td></tr><tr><td style="font-weight:bold;vertical-align:top;">is_pypy</td><td style="vertical-align:top;">:</td><td><div>False</div></td></tr><tr><td style="font-weight:bold;vertical-align:top;">is_source</td><td style="vertical-align:top;">:</td><td><div>True</div></td></tr><tr><td style="font-weight:bold;vertical-align:top;">local_hosts</td><td style="vertical-align:top;">:</td><td><div><table><tr><td><div>fe80::cb5:c84a:e02e:28b7%en0</div></td></tr><tr><td><div>::ffff:127.0.0.1</div></td></tr><tr><td><div>::1</div></td></tr><tr><td><div>MacBook-Air-de-Nic.local</div></td></tr><tr><td><div>1.0.0.127.in-addr.arpa</div></td></tr><tr><td><div>127.0.0.1</div></td></tr></table></div></td></tr><tr><td style="font-weight:bold;vertical-align:top;">path_info</td><td style="vertical-align:top;">:</td><td><div>/test/appadmin/insert/db/gender</div></td></tr><tr><td style="font-weight:bold;vertical-align:top;">query_string</td><td style="vertical-align:top;">:</td><td><div></div></td></tr><tr><td style="font-weight:bold;vertical-align:top;">remote_addr</td><td style="vertical-align:top;">:</td><td><div>127.0.0.1</div></td></tr><tr><td style="font-weight:bold;vertical-align:top;">remote_port</td><td style="vertical-align:top;">:</td><td><div>55663</div></td></tr><tr><td style="font-weight:bold;vertical-align:top;">request_method</td><td style="vertical-align:top;">:</td><td><div>POST</div></td></tr><tr><td style="font-weight:bold;vertical-align:top;">request_uri</td><td style="vertical-align:top;">:</td><td><div>/test/appadmin/insert/db/gender</div></td></tr><tr><td style="font-weight:bold;vertical-align:top;">script_name</td><td style="vertical-align:top;">:</td><td><div></div></td></tr><tr><td style="font-weight:bold;vertical-align:top;">server_name</td><td style="vertical-align:top;">:</td><td><div>MacBook-Air-de-Nic.local</div></td></tr><tr><td style="font-weight:bold;vertical-align:top;">server_port</td><td style="vertical-align:top;">:</td><td><div>8000</div></td></tr><tr><td style="font-weight:bold;vertical-align:top;">server_protocol</td><td style="vertical-align:top;">:</td><td><div>HTTP/1.1</div></td></tr><tr><td style="font-weight:bold;vertical-align:top;">server_software</td><td style="vertical-align:top;">:</td><td><div>Rocket 1.2.6</div></td></tr><tr><td style="font-weight:bold;vertical-align:top;">web2py_path</td><td style="vertical-align:top;">:</td><td><div>/Users/nic/Dev/web2py</div></td></tr><tr><td style="font-weight:bold;vertical-align:top;">web2py_version</td><td style="vertical-align:top;">:</td><td><div>2.18.5-stable+timestamp.2019.04.08.04.22.03</div></td></tr><tr><td style="font-weight:bold;vertical-align:top;">wsgi.errors</td><td style="vertical-align:top;">:</td><td><div>&lt;open file &#x27;&lt;stderr&gt;&#x27;, mode &#x27;w&#x27; at 0x1065a21e0&gt;</div></td></tr><tr><td style="font-weight:bold;vertical-align:top;">wsgi.file_wrapper</td><td style="vertical-align:top;">:</td><td><div>&lt;class wsgiref.util.FileWrapper at 0x1076be530&gt;</div></td></tr><tr><td style="font-weight:bold;vertical-align:top;">wsgi.input</td><td style="vertical-align:top;">:</td><td><div>&lt;socket._fileobject object at 0x10aa18750&gt;</div></td></tr><tr><td style="font-weight:bold;vertical-align:top;">wsgi.multiprocess</td><td style="vertical-align:top;">:</td><td><div>False</div></td></tr><tr><td style="font-weight:bold;vertical-align:top;">wsgi.multithread</td><td style="vertical-align:top;">:</td><td><div>True</div></td></tr><tr><td style="font-weight:bold;vertical-align:top;">wsgi.run_once</td><td style="vertical-align:top;">:</td><td><div>False</div></td></tr><tr><td style="font-weight:bold;vertical-align:top;">wsgi.url_scheme</td><td style="vertical-align:top;">:</td><td><div>http</div></td></tr><tr><td style="font-weight:bold;vertical-align:top;">wsgi.version</td><td style="vertical-align:top;">:</td><td><div><table><tr><td><div>1</div></td></tr><tr><td><div>0</div></td></tr></table></div></td></tr><tr><td style="font-weight:bold;vertical-align:top;">wsgi_errors</td><td style="vertical-align:top;">:</td><td><div>&lt;open file &#x27;&lt;stderr&gt;&#x27;, mode &#x27;w&#x27; at 0x1065a21e0&gt;</div></td></tr><tr><td style="font-weight:bold;vertical-align:top;">wsgi_file_wrapper</td><td style="vertical-align:top;">:</td><td><div>&lt;class wsgiref.util.FileWrapper at 0x1076be530&gt;</div></td></tr><tr><td style="font-weight:bold;vertical-align:top;">wsgi_input</td><td style="vertical-align:top;">:</td><td><div>&lt;socket._fileobject object at 0x10aa18750&gt;</div></td></tr><tr><td style="font-weight:bold;vertical-align:top;">wsgi_multiprocess</td><td style="vertical-align:top;">:</td><td><div>False</div></td></tr><tr><td style="font-weight:bold;vertical-align:top;">wsgi_multithread</td><td style="vertical-align:top;">:</td><td><div>True</div></td></tr><tr><td style="font-weight:bold;vertical-align:top;">wsgi_run_once</td><td style="vertical-align:top;">:</td><td><div>False</div></td></tr><tr><td style="font-weight:bold;vertical-align:top;">wsgi_url_scheme</td><td style="vertical-align:top;">:</td><td><div>http</div></td></tr><tr><td style="font-weight:bold;vertical-align:top;">wsgi_version</td><td style="vertical-align:top;">:</td><td><div><table><tr><td><div>1</div></td></tr><tr><td><div>0</div></td></tr></table></div></td></tr></table></div></td></tr><tr><td style="font-weight:bold;vertical-align:top;">extension</td><td style="vertical-align:top;">:</td><td><div>html</div></td></tr><tr><td style="font-weight:bold;vertical-align:top;">folder</td><td style="vertical-align:top;">:</td><td><div>/Users/nic/Dev/web2py/applications/test</div></td></tr><tr><td style="font-weight:bold;vertical-align:top;">function</td><td style="vertical-align:top;">:</td><td><div>insert</div></td></tr><tr><td style="font-weight:bold;vertical-align:top;">global_settings</td><td style="vertical-align:top;">:</td><td><div><table><tr><td style="font-weight:bold;vertical-align:top;">app_folders</td><td style="vertical-align:top;">:</td><td><div>set([&#x27;/Users/nic/Dev/web2py/applications/admin&#x27;, &#x27;/Users/nic/Dev/web2py/applications/test&#x27;])</div></td></tr><tr><td style="font-weight:bold;vertical-align:top;">applications_parent</td><td style="vertical-align:top;">:</td><td><div>/Users/nic/Dev/web2py</div></td></tr><tr><td style="font-weight:bold;vertical-align:top;">cmd_args</td><td style="vertical-align:top;">:</td><td><div><table></table></div></td></tr><tr><td style="font-weight:bold;vertical-align:top;">cmd_options</td><td style="vertical-align:top;">:</td><td><div>&lt;Values at 0x1077064d0: {&#x27;verbose&#x27;: False, &#x27;ip&#x27;: &#x27;127.0.0.1&#x27;, &#x27;debuglevel&#x27;: 30, &#x27;with_scheduler&#x27;: False, &#x27;shutdown_timeout&#x27;: 5, &#x27;taskbar&#x27;: False, &#x27;with_coverage&#x27;: False, &#x27;pid_filename&#x27;: &#x27;httpserver.pid&#x27;, &#x27;maxthreads&#x27;: None, &#x27;softcron&#x27;: False, &#x27;server_name&#x27;: &#x27;MacBook-Air-de-Nic.local&#x27;, &#x27;bpython&#x27;: False, &#x27;nogui&#x27;: False, &#x27;port&#x27;: 8000, &#x27;print_errors&#x27;: False, &#x27;extcron&#x27;: False, &#x27;runcron&#x27;: False, &#x27;run_system_tests&#x27;: False, &#x27;test&#x27;: None, &#x27;folder&#x27;: &#x27;/Users/nic/Dev/web2py&#x27;, &#x27;config&#x27;: &#x27;&#x27;, &#x27;minthreads&#x27;: None, &#x27;shell&#x27;: None, &#x27;run&#x27;: &#x27;&#x27;, &#x27;log_filename&#x27;: &#x27;httpserver.log&#x27;, &#x27;profiler_dir&#x27;: None, &#x27;args&#x27;: [], &#x27;socket_timeout&#x27;: 5, &#x27;ssl_ca_certificate&#x27;: None, &#x27;scheduler&#x27;: None, &#x27;interfaces&#x27;: None, &#x27;ssl_private_key&#x27;: &#x27;&#x27;, &#x27;gae&#x27;: None, &#x27;password&#x27;: &#x27;******&#x27;, &#x27;request_queue_size&#x27;: 5, &#x27;ssl_certificate&#x27;: &#x27;&#x27;, &#x27;cronjob&#x27;: False, &#x27;numthreads&#x27;: None, &#x27;quiet&#x27;: False, &#x27;import_models&#x27;: False, &#x27;timeout&#x27;: 10, &#x27;plain&#x27;: False, &#x27;nobanner&#x27;: False}&gt;</div></td></tr><tr><td style="font-weight:bold;vertical-align:top;">db_sessions</td><td style="vertical-align:top;">:</td><td><div>set([])</div></td></tr><tr><td style="font-weight:bold;vertical-align:top;">debugging</td><td style="vertical-align:top;">:</td><td><div>False</div></td></tr><tr><td style="font-weight:bold;vertical-align:top;">gluon_parent</td><td style="vertical-align:top;">:</td><td><div>/Users/nic/Dev/web2py</div></td></tr><tr><td style="font-weight:bold;vertical-align:top;">is_jython</td><td style="vertical-align:top;">:</td><td><div>False</div></td></tr><tr><td style="font-weight:bold;vertical-align:top;">is_py2</td><td style="vertical-align:top;">:</td><td><div>True</div></td></tr><tr><td style="font-weight:bold;vertical-align:top;">is_pypy</td><td style="vertical-align:top;">:</td><td><div>False</div></td></tr><tr><td style="font-weight:bold;vertical-align:top;">is_source</td><td style="vertical-align:top;">:</td><td><div>True</div></td></tr><tr><td style="font-weight:bold;vertical-align:top;">local_hosts</td><td style="vertical-align:top;">:</td><td><div><table><tr><td><div>fe80::cb5:c84a:e02e:28b7%en0</div></td></tr><tr><td><div>::ffff:127.0.0.1</div></td></tr><tr><td><div>::1</div></td></tr><tr><td><div>MacBook-Air-de-Nic.local</div></td></tr><tr><td><div>1.0.0.127.in-addr.arpa</div></td></tr><tr><td><div>127.0.0.1</div></td></tr></table></div></td></tr><tr><td style="font-weight:bold;vertical-align:top;">web2py_version</td><td style="vertical-align:top;">:</td><td><div>2.18.5-stable+timestamp.2019.04.08.04.22.03</div></td></tr></table></div></td></tr><tr><td style="font-weight:bold;vertical-align:top;">is_https</td><td style="vertical-align:top;">:</td><td><div>False</div></td></tr><tr><td style="font-weight:bold;vertical-align:top;">is_local</td><td style="vertical-align:top;">:</td><td><div>True</div></td></tr><tr><td style="font-weight:bold;vertical-align:top;">is_restful</td><td style="vertical-align:top;">:</td><td><div>False</div></td></tr><tr><td style="font-weight:bold;vertical-align:top;">is_scheduler</td><td style="vertical-align:top;">:</td><td><div>False</div></td></tr><tr><td style="font-weight:bold;vertical-align:top;">is_shell</td><td style="vertical-align:top;">:</td><td><div>False</div></td></tr><tr><td style="font-weight:bold;vertical-align:top;">method</td><td style="vertical-align:top;">:</td><td><div>POST</div></td></tr><tr><td style="font-weight:bold;vertical-align:top;">now</td><td style="vertical-align:top;">:</td><td><div>datetime.datetime(2019, 8, 20, 22, 16, 1, 562424)</div></td></tr><tr><td style="font-weight:bold;vertical-align:top;">raw_args</td><td style="vertical-align:top;">:</td><td><div>db/gender</div></td></tr><tr><td style="font-weight:bold;vertical-align:top;">raw_extension</td><td style="vertical-align:top;">:</td><td><div>None</div></td></tr><tr><td style="font-weight:bold;vertical-align:top;">url</td><td style="vertical-align:top;">:</td><td><div>/test/appadmin/insert/db/gender</div></td></tr><tr><td style="font-weight:bold;vertical-align:top;">utcnow</td><td style="vertical-align:top;">:</td><td><div>datetime.datetime(2019, 8, 21, 2, 16, 1, 562432)</div></td></tr><tr><td style="font-weight:bold;vertical-align:top;">wsgi</td><td style="vertical-align:top;">:</td><td><div>&lt;gluon.main.LazyWSGI object at 0x10aa0b9d0&gt;</div></td></tr></table></div>'
tRp60
sS'frames'
p61
(lp62
(dp63
S'file'
p64
S'/Users/nic/Dev/web2py/gluon/restricted.py'
p65
sS'dump'
p66
(dp67
S'environment'
p68
S"{'A': <class 'gluon.html.A'>, 'ANY_OF': <class 'pydal.validators.ANY_OF'>, 'ASSIGNJS': <function ASSIGNJS>, 'AppConfig': <function AppConfig>, 'Auth': <class 'gluon.tools.Auth'>, 'B': <class 'gluon.html.B'>, 'BEAUTIFY': <class 'gluon.html.BEAUTIFY'>, 'BODY': <class 'gluon.html.BODY'>, 'BR': <class 'gluon.html.BR'>, 'BUTTON': <class 'gluon.html.BUTTON'>, ...}"
p69
sS'ccode'
p70
S'<code object <module> at 0x10aa18030, file "/Use...plications/test/controllers/appadmin.py", line 7>'
p71
ssS'lnum'
p72
I219
sS'lines'
p73
(dp74
I214
S'    if environment is None:'
p75
sI215
S'        environment = {}'
p76
sI216
S"    environment['__file__'] = layer"
p77
sI217
S"    environment['__name__'] = '__restricted__'"
p78
sI218
S'    try:'
p79
sI219
S'        exec(ccode, environment)'
p80
sI220
S'    except HTTP:'
p81
sI221
S'        raise'
p82
sI222
S'    except RestrictedError:'
p83
sI223
S'        # do not encapsulate (obfuscate) the original RestrictedError'
p84
ssS'call'
p85
S'(ccode=<code object <module> at 0x10aa18030, file "/Use...plications/test/controllers/appadmin.py", line 7>, environment={\'A\': <class \'gluon.html.A\'>, \'ANY_OF\': <class \'pydal.validators.ANY_OF\'>, \'ASSIGNJS\': <function ASSIGNJS>, \'AppConfig\': <function AppConfig>, \'Auth\': <class \'gluon.tools.Auth\'>, \'B\': <class \'gluon.html.B\'>, \'BEAUTIFY\': <class \'gluon.html.BEAUTIFY\'>, \'BODY\': <class \'gluon.html.BODY\'>, \'BR\': <class \'gluon.html.BR\'>, \'BUTTON\': <class \'gluon.html.BUTTON\'>, ...}, layer=\'/Users/nic/Dev/web2py/applications/test/controllers/appadmin.py\', scode=<code object <module> at 0x10aa18030, file "/Use...plications/test/controllers/appadmin.py", line 7>)'
p86
sS'func'
p87
S'restricted'
p88
sa(dp89
g64
S'/Users/nic/Dev/web2py/applications/test/controllers/appadmin.py'
p90
sg66
(dp91
sg72
I694
sg73
(dp92
I684
S"                    referenced_table = f_type.split()[1].split('.')[0]"
p93
sI685
S''
sI686
S'                    links.append(dict(source=tablename, target = referenced_table))'
p94
sI687
S''
sI688
S'            nodes.append(dict(name=tablename, type="table", fields = fields))'
p95
sI689
S''
sI690
S'    # d3 v4 allows individual modules to be specified.  The complete d3 library is included below.'
p96
sI691
S"    response.files.append(URL('admin','static','js/d3.min.js'))"
p97
sI692
S"    response.files.append(URL('admin','static','js/d3_graph.js'))"
p98
sI693
S'    return dict(databases=databases, nodes=nodes, links=links)'
p99
ssg85
S'()'
p100
sg87
S'<module>'
p101
sa(dp102
g64
S'/Users/nic/Dev/web2py/gluon/globals.py'
p103
sg66
(dp104
S'self'
p105
S'undefined'
p106
sS'f'
S'<function insert>'
p107
ssg72
I421
sg73
(dp108
I416
S"        self.flash = ''            # used by the default view layout"
p109
sI417
S'        self.meta = Storage()      # used by web2py_ajax.html'
p110
sI418
S'        self.menu = []             # used by the default view layout'
p111
sI419
S'        self.files = []            # used by web2py_ajax.html'
p112
sI420
S'        self._vars = None'
p113
sI421
S'        self._caller = lambda f: f()'
p114
sI422
S'        self._view_environment = None'
p115
sI423
S'        self._custom_commit = None'
p116
sI424
S'        self._custom_rollback = None'
p117
sI425
S"        self.generic_patterns = ['*']"
p118
ssg85
S'(f=<function insert>)'
p119
sg87
S'<lambda>'
p120
sa(dp121
g64
S'/Users/nic/Dev/web2py/applications/test/controllers/appadmin.py'
p122
sg66
(dp123
S'global request'
p124
S"<Storage {'function': 'insert', 'cookies': <Simp...False, 'is_https': False, 'client': '127.0.0.1'}>"
p125
sS'request.vars'
p126
S"<Storage {'_formkey': 'a0ffcde9-530d-4662-ba85-2...nder': 'Femenino', '_formname': 'gender/create'}>"
p127
sS'global session'
p128
S"<Storage {'_formkey[gender/create]': [], 'last_q...gin]': ['56b90824-1710-4d5a-838a-f2a30326969c']}>"
p129
sS'form'
p130
S'<gluon.sqlhtml.SQLFORM object>'
p131
sS'form.accepts'
p132
S'<bound method SQLFORM.accepts of <gluon.sqlhtml.SQLFORM object>>'
p133
ssg72
I147
sg73
(dp134
I142
S''
sI143
S''
sI144
S'def insert():'
p135
sI145
S'    (db, table) = get_table(request)'
p136
sI146
S'    form = SQLFORM(db[table], ignore_rw=ignore_rw)'
p137
sI147
S'    if form.accepts(request.vars, session):'
p138
sI148
S"        response.flash = T('new record inserted')"
p139
sI149
S'    return dict(form=form, table=db[table])'
p140
sI150
S''
sI151
S''
ssg85
S'()'
p141
sg87
S'insert'
p142
sa(dp143
g64
S'/Users/nic/Dev/web2py/gluon/sqlhtml.py'
p144
sg66
(dp145
S'kwargs'
p146
g19
ssg72
I1785
sg73
(dp147
I1780
S'            session,'
p148
sI1781
S'            formname,'
p149
sI1782
S'            keepvalues,'
p150
sI1783
S'            onvalidation,'
p151
sI1784
S'            hideerror=hideerror,'
p152
sI1785
S'            **kwargs'
p153
sI1786
S'        )'
p154
sI1787
S''
sI1788
S'        self.deleted = request_vars.get(self.FIELDNAME_REQUEST_DELETE, False)'
p155
sI1789
S''
ssg85
S"(self=<gluon.sqlhtml.SQLFORM object>, request_vars=<Storage {'_formkey': 'a0ffcde9-530d-4662-ba85-2...nder': 'Femenino', '_formname': 'gender/create'}>, session=<Storage {'_formkey[gender/create]': [], 'last_q...gin]': ['56b90824-1710-4d5a-838a-f2a30326969c']}>, formname='gender/create', keepvalues=False, onvalidation=None, dbio=True, hideerror=False, detect_record_change=False, **kwargs={})"
p156
sg87
S'accepts'
p157
sa(dp158
g64
S'/Users/nic/Dev/web2py/gluon/html.py'
p159
sg66
(dp160
S'status'
p161
S'True'
p162
sS'self'
p163
S'<gluon.sqlhtml.SQLFORM object>'
p164
sS'self._traverse'
p165
S'<bound method SQLFORM._traverse of <gluon.sqlhtml.SQLFORM object>>'
p166
sS'hideerror'
p167
S'False'
p168
ssg72
I2149
sg73
(dp169
I2144
S'        if status and session:'
p170
sI2145
S'            # check if editing a record that has been modified by the server'
p171
sI2146
S"            if hasattr(self, 'record_hash') and self.record_hash != formkey.split(':')[0]:"
p172
sI2147
S'                status = False'
p173
sI2148
S'                self.record_changed = changed = True'
p174
sI2149
S'        status = self._traverse(status, hideerror)'
p175
sI2150
S'        status = self.assert_status(status, request_vars)'
p176
sI2151
S'        if onvalidation:'
p177
sI2152
S'            if isinstance(onvalidation, dict):'
p178
sI2153
S"                onsuccess = onvalidation.get('onsuccess', None)"
p179
ssg85
S"(self=<gluon.sqlhtml.SQLFORM object>, request_vars=<Storage {'_formkey': 'a0ffcde9-530d-4662-ba85-2...nder': 'Femenino', '_formname': 'gender/create'}>, session=<Storage {'_formkey[gender/create]': [], 'last_q...gin]': ['56b90824-1710-4d5a-838a-f2a30326969c']}>, formname='gender/create', keepvalues=False, onvalidation=None, hideerror=False, **kwargs={})"
p180
sg87
g157
sa(dp181
g64
S'/Users/nic/Dev/web2py/gluon/html.py'
p182
sg66
(dp183
S'status'
p184
g162
sS'newstatus'
p185
g162
sS'c'
S'<gluon.html.CAT object>'
p186
sS'hideerror'
p187
g168
sS'c._traverse'
p188
S'<bound method CAT._traverse of <gluon.html.CAT object>>'
p189
ssg72
I910
sg73
(dp190
I905
S'                c.latest = self.latest'
p191
sI906
S'                c.session = self.session'
p192
sI907
S'                c.formname = self.formname'
p193
sI908
S"                if not c.attributes.get('hideerror'):"
p194
sI909
S"                    c['hideerror'] = hideerror or self.attributes.get('hideerror')"
p195
sI910
S'                newstatus = c._traverse(status, hideerror) and newstatus'
p196
sI911
S''
sI912
S'        # for input, textarea, select, option'
p197
sI913
S"        # deal with 'value' and 'validation'"
p198
sI914
S''
ssg85
S'(self=<gluon.sqlhtml.SQLFORM object>, status=True, hideerror=False)'
p199
sg87
S'_traverse'
p200
sa(dp201
g64
S'/Users/nic/Dev/web2py/gluon/html.py'
p202
sg66
(dp203
S'status'
p204
g162
sS'newstatus'
p205
g162
sS'c'
S'<gluon.html.DIV object>'
p206
sS'hideerror'
p207
g168
sS'c._traverse'
p208
S'<bound method DIV._traverse of <gluon.html.DIV object>>'
p209
ssg72
I910
sg73
(dp210
I905
S'                c.latest = self.latest'
p211
sI906
S'                c.session = self.session'
p212
sI907
S'                c.formname = self.formname'
p213
sI908
S"                if not c.attributes.get('hideerror'):"
p214
sI909
S"                    c['hideerror'] = hideerror or self.attributes.get('hideerror')"
p215
sI910
S'                newstatus = c._traverse(status, hideerror) and newstatus'
p216
sI911
S''
sI912
S'        # for input, textarea, select, option'
p217
sI913
S"        # deal with 'value' and 'validation'"
p218
sI914
S''
ssg85
S'(self=<gluon.html.CAT object>, status=True, hideerror=False)'
p219
sg87
g200
sa(dp220
g64
S'/Users/nic/Dev/web2py/gluon/html.py'
p221
sg66
(dp222
S'status'
p223
g162
sS'newstatus'
p224
g162
sS'c'
S'<gluon.html.DIV object>'
p225
sS'hideerror'
p226
g168
sS'c._traverse'
p227
S'<bound method DIV._traverse of <gluon.html.DIV object>>'
p228
ssg72
I910
sg73
(dp229
I905
S'                c.latest = self.latest'
p230
sI906
S'                c.session = self.session'
p231
sI907
S'                c.formname = self.formname'
p232
sI908
S"                if not c.attributes.get('hideerror'):"
p233
sI909
S"                    c['hideerror'] = hideerror or self.attributes.get('hideerror')"
p234
sI910
S'                newstatus = c._traverse(status, hideerror) and newstatus'
p235
sI911
S''
sI912
S'        # for input, textarea, select, option'
p236
sI913
S"        # deal with 'value' and 'validation'"
p237
sI914
S''
ssg85
S'(self=<gluon.html.DIV object>, status=True, hideerror=False)'
p238
sg87
g200
sa(dp239
g64
S'/Users/nic/Dev/web2py/gluon/html.py'
p240
sg66
(dp241
S'status'
p242
g162
sS'newstatus'
p243
g162
sS'c'
S'<gluon.html.INPUT object>'
p244
sS'hideerror'
p245
g168
sS'c._traverse'
p246
S'<bound method INPUT._traverse of <gluon.html.INPUT object>>'
p247
ssg72
I910
sg73
(dp248
I905
S'                c.latest = self.latest'
p249
sI906
S'                c.session = self.session'
p250
sI907
S'                c.formname = self.formname'
p251
sI908
S"                if not c.attributes.get('hideerror'):"
p252
sI909
S"                    c['hideerror'] = hideerror or self.attributes.get('hideerror')"
p253
sI910
S'                newstatus = c._traverse(status, hideerror) and newstatus'
p254
sI911
S''
sI912
S'        # for input, textarea, select, option'
p255
sI913
S"        # deal with 'value' and 'validation'"
p256
sI914
S''
ssg85
S'(self=<gluon.html.DIV object>, status=True, hideerror=False)'
p257
sg87
g200
sa(dp258
g64
S'/Users/nic/Dev/web2py/gluon/html.py'
p259
sg66
(dp260
S'newstatus'
p261
g162
sS'self'
p262
S'<gluon.html.INPUT object>'
p263
sS'self._validate'
p264
S'<bound method INPUT._validate of <gluon.html.INPUT object>>'
p265
ssg72
I917
sg73
(dp266
I912
S'        # for input, textarea, select, option'
p267
sI913
S"        # deal with 'value' and 'validation'"
p268
sI914
S''
sI915
S"        name = self['_name']"
p269
sI916
S'        if newstatus:'
p270
sI917
S'            newstatus = self._validate()'
p271
sI918
S'            self._postprocessing()'
p272
sI919
S"        elif 'old_value' in self.attributes:"
p273
sI920
S"            self['value'] = self['old_value']"
p274
sI921
S'            self._postprocessing()'
p275
ssg85
S'(self=<gluon.html.INPUT object>, status=True, hideerror=False)'
p276
sg87
g200
sa(dp277
g64
S'/Users/nic/Dev/web2py/gluon/html.py'
p278
sg66
(dp279
S'builtinException'
p280
S"<type 'exceptions.Exception'>"
p281
sS'msg'
p282
S'"Validation error, field:option_gender <class \'pydal.validators.IS_NOT_EMPTY\'>"'
p283
ssg72
I1895
sg73
(dp284
I1890
S'                    (value, errors) = validator(value)'
p285
sI1891
S'                except:'
p286
sI1892
S'                    import traceback'
p287
sI1893
S'                    print(traceback.format_exc())'
p288
sI1894
S'                    msg = "Validation error, field:%s %s" % (name, validator)'
p289
sI1895
S'                    raise Exception(msg)'
p290
sI1896
S'                if errors is not None:'
p291
sI1897
S'                    self.vars[name] = value'
p292
sI1898
S'                    self.errors[name] = errors'
p293
sI1899
S'                    break'
p294
ssg85
S'(self=<gluon.html.INPUT object>)'
p295
sg87
S'_validate'
p296
sasS'pyver'
p297
S'Python 2.7.10: /usr/bin/python (prefix: /System/Library/Frameworks/Python.framework/Versions/2.7)'
p298
sS'session'
p299
g59
(S's\x01\n\x00\x00<div><table><tr><td style="font-weight:bold;vertical-align:top;">auth</td><td style="vertical-align:top;">:</td><td><div><table><tr><td style="font-weight:bold;vertical-align:top;">expiration</td><td style="vertical-align:top;">:</td><td><div>3600</div></td></tr><tr><td style="font-weight:bold;vertical-align:top;">hmac_key</td><td style="vertical-align:top;">:</td><td><div>175c7fac-49b0-46b8-b60f-e249b3abb9d6</div></td></tr><tr><td style="font-weight:bold;vertical-align:top;">last_visit</td><td style="vertical-align:top;">:</td><td><div>datetime.datetime(2019, 8, 20, 22, 12, 4, 814487)</div></td></tr><tr><td style="font-weight:bold;vertical-align:top;">remember_me</td><td style="vertical-align:top;">:</td><td><div>False</div></td></tr><tr><td style="font-weight:bold;vertical-align:top;">user</td><td style="vertical-align:top;">:</td><td><div><table><tr><td style="font-weight:bold;vertical-align:top;">email</td><td style="vertical-align:top;">:</td><td><div>admin@duoc.cl</div></td></tr><tr><td style="font-weight:bold;vertical-align:top;">first_name</td><td style="vertical-align:top;">:</td><td><div>Admin</div></td></tr><tr><td style="font-weight:bold;vertical-align:top;">id</td><td style="vertical-align:top;">:</td><td><div>1L</div></td></tr><tr><td style="font-weight:bold;vertical-align:top;">last_name</td><td style="vertical-align:top;">:</td><td><div>duoc</div></td></tr><tr><td style="font-weight:bold;vertical-align:top;">registration_id</td><td style="vertical-align:top;">:</td><td><div></div></td></tr><tr><td style="font-weight:bold;vertical-align:top;">registration_key</td><td style="vertical-align:top;">:</td><td><div></div></td></tr><tr><td style="font-weight:bold;vertical-align:top;">reset_password_key</td><td style="vertical-align:top;">:</td><td><div></div></td></tr></table></div></td></tr><tr><td style="font-weight:bold;vertical-align:top;">user_groups</td><td style="vertical-align:top;">:</td><td><div><table><tr><td style="font-weight:bold;vertical-align:top;">1</td><td style="vertical-align:top;">:</td><td><div>Sysadmin</div></td></tr></table></div></td></tr></table></div></td></tr><tr><td style="font-weight:bold;vertical-align:top;">flash</td><td style="vertical-align:top;">:</td><td><div>None</div></td></tr><tr><td style="font-weight:bold;vertical-align:top;">last_orderby</td><td style="vertical-align:top;">:</td><td><div>None</div></td></tr><tr><td style="font-weight:bold;vertical-align:top;">last_query</td><td style="vertical-align:top;">:</td><td><div>db.gender.id&gt;0</div></td></tr></table></div>'
tRp300
sS'etype'
p301
S"<type 'exceptions.Exception'>"
p302
sS'date'
p303
S'Tue Aug 20 22:16:01 2019'
p304
sS'response'
p305
g59
(S's\xe6\x1e\x00\x00<div><table><tr><td style="font-weight:bold;vertical-align:top;">body</td><td style="vertical-align:top;">:</td><td><div>&lt;cStringIO.StringO object at 0x10aac7960&gt;</div></td></tr><tr><td style="font-weight:bold;vertical-align:top;">cookies</td><td style="vertical-align:top;">:</td><td><div><table><tr><td style="font-weight:bold;vertical-align:top;">session_id_test</td><td style="vertical-align:top;">:</td><td><div>127.0.0.1-49d23944-9530-407b-9625-e4daf5fa5af5<table><tr><td style="font-weight:bold;vertical-align:top;">comment</td><td style="vertical-align:top;">:</td><td><div></div></td></tr><tr><td style="font-weight:bold;vertical-align:top;">domain</td><td style="vertical-align:top;">:</td><td><div></div></td></tr><tr><td style="font-weight:bold;vertical-align:top;">expires</td><td style="vertical-align:top;">:</td><td><div></div></td></tr><tr><td style="font-weight:bold;vertical-align:top;">httponly</td><td style="vertical-align:top;">:</td><td><div></div></td></tr><tr><td style="font-weight:bold;vertical-align:top;">max-age</td><td style="vertical-align:top;">:</td><td><div></div></td></tr><tr><td style="font-weight:bold;vertical-align:top;">path</td><td style="vertical-align:top;">:</td><td><div>/</div></td></tr><tr><td style="font-weight:bold;vertical-align:top;">samesite</td><td style="vertical-align:top;">:</td><td><div></div></td></tr><tr><td style="font-weight:bold;vertical-align:top;">secure</td><td style="vertical-align:top;">:</td><td><div></div></td></tr><tr><td style="font-weight:bold;vertical-align:top;">version</td><td style="vertical-align:top;">:</td><td><div></div></td></tr></table></div></td></tr></table></div></td></tr><tr><td style="font-weight:bold;vertical-align:top;">delimiters</td><td style="vertical-align:top;">:</td><td><div><table><tr><td><div>{{</div></td></tr><tr><td><div>}}</div></td></tr></table></div></td></tr><tr><td style="font-weight:bold;vertical-align:top;">files</td><td style="vertical-align:top;">:</td><td><div><table></table></div></td></tr><tr><td style="font-weight:bold;vertical-align:top;">flash</td><td style="vertical-align:top;">:</td><td><div></div></td></tr><tr><td style="font-weight:bold;vertical-align:top;">form_label_separator</td><td style="vertical-align:top;">:</td><td><div></div></td></tr><tr><td style="font-weight:bold;vertical-align:top;">formstyle</td><td style="vertical-align:top;">:</td><td><div>bootstrap4_inline</div></td></tr><tr><td style="font-weight:bold;vertical-align:top;">generic_patterns</td><td style="vertical-align:top;">:</td><td><div><table><tr><td><div>*</div></td></tr></table></div></td></tr><tr><td style="font-weight:bold;vertical-align:top;">google_analytics_id</td><td style="vertical-align:top;">:</td><td><div>None</div></td></tr><tr><td style="font-weight:bold;vertical-align:top;">headers</td><td style="vertical-align:top;">:</td><td><div><table><tr><td style="font-weight:bold;vertical-align:top;">X-Powered-By</td><td style="vertical-align:top;">:</td><td><div>web2py</div></td></tr></table></div></td></tr><tr><td style="font-weight:bold;vertical-align:top;">menu</td><td style="vertical-align:top;">:</td><td><div><table><tr><td><div><table><tr><td><div>dise\xc3\xb1o</div></td></tr><tr><td><div>False</div></td></tr><tr><td><div>/admin/default/design/test</div></td></tr></table></div></td></tr><tr><td><div><table><tr><td><div>bdd</div></td></tr><tr><td><div>False</div></td></tr><tr><td><div>/test/appadmin/index</div></td></tr></table></div></td></tr><tr><td><div><table><tr><td><div>estado</div></td></tr><tr><td><div>False</div></td></tr><tr><td><div>/test/appadmin/state</div></td></tr></table></div></td></tr><tr><td><div><table><tr><td><div>cach\xc3\xa9</div></td></tr><tr><td><div>False</div></td></tr><tr><td><div>/test/appadmin/ccache</div></td></tr></table></div></td></tr></table></div></td></tr><tr><td style="font-weight:bold;vertical-align:top;">meta</td><td style="vertical-align:top;">:</td><td><div><table><tr><td style="font-weight:bold;vertical-align:top;">author</td><td style="vertical-align:top;">:</td><td><div>Your Name &lt;you@example.com&gt;</div></td></tr><tr><td style="font-weight:bold;vertical-align:top;">description</td><td style="vertical-align:top;">:</td><td><div>a cool new app</div></td></tr><tr><td style="font-weight:bold;vertical-align:top;">generator</td><td style="vertical-align:top;">:</td><td><div>Web2py Web Framework</div></td></tr><tr><td style="font-weight:bold;vertical-align:top;">keywords</td><td style="vertical-align:top;">:</td><td><div><table><tr><td><div>web2py</div></td></tr><tr><td><div>python</div></td></tr><tr><td><div>framework</div></td></tr></table></div></td></tr></table></div></td></tr><tr><td style="font-weight:bold;vertical-align:top;">models_to_run</td><td style="vertical-align:top;">:</td><td><div><table><tr><td><div>^\\w+\\.py$</div></td></tr><tr><td><div>^appadmin/\\w+\\.py$</div></td></tr><tr><td><div>^appadmin/insert/\\w+\\.py$</div></td></tr></table></div></td></tr><tr><td style="font-weight:bold;vertical-align:top;">postprocessing</td><td style="vertical-align:top;">:</td><td><div><table></table></div></td></tr><tr><td style="font-weight:bold;vertical-align:top;">session_client</td><td style="vertical-align:top;">:</td><td><div>127.0.0.1</div></td></tr><tr><td style="font-weight:bold;vertical-align:top;">session_cookie_compression_level</td><td style="vertical-align:top;">:</td><td><div>None</div></td></tr><tr><td style="font-weight:bold;vertical-align:top;">session_cookie_expires</td><td style="vertical-align:top;">:</td><td><div>None</div></td></tr><tr><td style="font-weight:bold;vertical-align:top;">session_data_name</td><td style="vertical-align:top;">:</td><td><div>session_data_test</div></td></tr><tr><td style="font-weight:bold;vertical-align:top;">session_file</td><td style="vertical-align:top;">:</td><td><div>&lt;open file &#x27;/Users/nic/Dev/web2py/applications/test/sessions/15b/025/127.0.0.1-49d23944-9530-407b-9625-e4daf5fa5af5&#x27;, mode &#x27;rb+&#x27; at 0x10aaa0a50&gt;</div></td></tr><tr><td style="font-weight:bold;vertical-align:top;">session_filename</td><td style="vertical-align:top;">:</td><td><div>/Users/nic/Dev/web2py/applications/test/sessions/127.0.0.1-49d23944-9530-407b-9625-e4daf5fa5af5</div></td></tr><tr><td style="font-weight:bold;vertical-align:top;">session_hash</td><td style="vertical-align:top;">:</td><td><div>1af4f94e7f8c2c5f52cb7f618f100e18</div></td></tr><tr><td style="font-weight:bold;vertical-align:top;">session_id</td><td style="vertical-align:top;">:</td><td><div>127.0.0.1-49d23944-9530-407b-9625-e4daf5fa5af5</div></td></tr><tr><td style="font-weight:bold;vertical-align:top;">session_id_name</td><td style="vertical-align:top;">:</td><td><div>session_id_test</div></td></tr><tr><td style="font-weight:bold;vertical-align:top;">session_locked</td><td style="vertical-align:top;">:</td><td><div>True</div></td></tr><tr><td style="font-weight:bold;vertical-align:top;">session_masterapp</td><td style="vertical-align:top;">:</td><td><div>test</div></td></tr><tr><td style="font-weight:bold;vertical-align:top;">session_new</td><td style="vertical-align:top;">:</td><td><div>False</div></td></tr><tr><td style="font-weight:bold;vertical-align:top;">session_storage_type</td><td style="vertical-align:top;">:</td><td><div>file</div></td></tr><tr><td style="font-weight:bold;vertical-align:top;">show_toolbar</td><td style="vertical-align:top;">:</td><td><div>False</div></td></tr><tr><td style="font-weight:bold;vertical-align:top;">status</td><td style="vertical-align:top;">:</td><td><div>200</div></td></tr><tr><td style="font-weight:bold;vertical-align:top;">subtitle</td><td style="vertical-align:top;">:</td><td><div>Administraci\xc3\xb3n de Base de Datos (appadmin)</div></td></tr><tr><td style="font-weight:bold;vertical-align:top;">view</td><td style="vertical-align:top;">:</td><td><div>appadmin.html</div></td></tr></table></div>'
tRp306
sS'locals'
p307
(dp308
S'name'
p309
S"'option_gender'"
p310
sS'k'
S'0'
sS'traceback'
p311
S"<module 'traceback' from '/System/Library/Framew...mework/Versions/2.7/lib/python2.7/traceback.pyc'>"
p312
sS'value'
p313
S"'Femenino'"
p314
sS'validator'
p315
S"<class 'pydal.validators.IS_NOT_EMPTY'>"
p316
sS'msg'
p317
S'"Validation error, field:option_gender <class \'pydal.validators.IS_NOT_EMPTY\'>"'
p318
sS'request_vars_get'
p319
S'<built-in method get of Storage object>'
p320
sS'requires'
p321
S"[<class 'pydal.validators.IS_NOT_EMPTY'>]"
p322
sS'self'
p323
S'<gluon.html.INPUT object>'
p324
sssg311
S'Traceback (most recent call last):\n  File "/Users/nic/Dev/web2py/gluon/restricted.py", line 219, in restricted\n    exec(ccode, environment)\n  File "/Users/nic/Dev/web2py/applications/test/controllers/appadmin.py", line 694, in <module>\n  File "/Users/nic/Dev/web2py/gluon/globals.py", line 421, in <lambda>\n    self._caller = lambda f: f()\n  File "/Users/nic/Dev/web2py/applications/test/controllers/appadmin.py", line 147, in insert\n    if form.accepts(request.vars, session):\n  File "/Users/nic/Dev/web2py/gluon/sqlhtml.py", line 1785, in accepts\n    **kwargs\n  File "/Users/nic/Dev/web2py/gluon/html.py", line 2149, in accepts\n    status = self._traverse(status, hideerror)\n  File "/Users/nic/Dev/web2py/gluon/html.py", line 910, in _traverse\n    newstatus = c._traverse(status, hideerror) and newstatus\n  File "/Users/nic/Dev/web2py/gluon/html.py", line 910, in _traverse\n    newstatus = c._traverse(status, hideerror) and newstatus\n  File "/Users/nic/Dev/web2py/gluon/html.py", line 910, in _traverse\n    newstatus = c._traverse(status, hideerror) and newstatus\n  File "/Users/nic/Dev/web2py/gluon/html.py", line 910, in _traverse\n    newstatus = c._traverse(status, hideerror) and newstatus\n  File "/Users/nic/Dev/web2py/gluon/html.py", line 917, in _traverse\n    newstatus = self._validate()\n  File "/Users/nic/Dev/web2py/gluon/html.py", line 1895, in _validate\n    raise Exception(msg)\nException: Validation error, field:option_gender <class \'pydal.validators.IS_NOT_EMPTY\'>\n'
p325
s.