(dp1
S'output'
p2
S"<type 'exceptions.TypeError'> can't pickle instancemethod objects"
p3
sS'layer'
p4
S'/Users/nic/Dev/web2py/applications/test/models/db_model.py'
p5
sS'code'
p6
S'<code object <module> at 0x1122b0230, file "/Users/nic/Dev/web2py/applications/test/models/db_model.py", line 3>'
p7
sS'snapshot'
p8
(dp9
S'exception'
p10
(dp11
S'__getslice__'
p12
S"<method-wrapper '__getslice__' of exceptions.TypeError object>"
p13
sS'__str__'
p14
S"<method-wrapper '__str__' of exceptions.TypeError object>"
p15
sS'__reduce__'
p16
S'<built-in method __reduce__ of exceptions.TypeError object>'
p17
sS'__dict__'
p18
S'{}'
p19
sS'message'
p20
S'"can\'t pickle instancemethod objects"'
p21
sS'__sizeof__'
p22
S'<built-in method __sizeof__ of exceptions.TypeError object>'
p23
sS'__init__'
p24
S"<method-wrapper '__init__' of exceptions.TypeError object>"
p25
sS'__setattr__'
p26
S"<method-wrapper '__setattr__' of exceptions.TypeError object>"
p27
sS'__reduce_ex__'
p28
S'<built-in method __reduce_ex__ of exceptions.TypeError object>'
p29
sS'__new__'
p30
S'<built-in method __new__ of type object>'
p31
sS'__format__'
p32
S'<built-in method __format__ of exceptions.TypeError object>'
p33
sS'__class__'
p34
S"<type 'exceptions.TypeError'>"
p35
sS'__doc__'
p36
S"'Inappropriate argument type.'"
p37
sS'__getitem__'
p38
S"<method-wrapper '__getitem__' of exceptions.TypeError object>"
p39
sS'__setstate__'
p40
S'<built-in method __setstate__ of exceptions.TypeError object>'
p41
sS'__getattribute__'
p42
S"<method-wrapper '__getattribute__' of exceptions.TypeError object>"
p43
sS'args'
p44
S'("can\'t pickle instancemethod objects",)'
p45
sS'__subclasshook__'
p46
S'<built-in method __subclasshook__ of type object>'
p47
sS'__unicode__'
p48
S'<built-in method __unicode__ of exceptions.TypeError object>'
p49
sS'__delattr__'
p50
S"<method-wrapper '__delattr__' of exceptions.TypeError object>"
p51
sS'__repr__'
p52
S"<method-wrapper '__repr__' of exceptions.TypeError object>"
p53
sS'__hash__'
p54
S"<method-wrapper '__hash__' of exceptions.TypeError object>"
p55
ssS'evalue'
p56
S"can't pickle instancemethod objects"
p57
sS'request'
p58
cgluon.html
XML_unpickle
p59
(S's\xf3h\x00\x00<div><table><tr><td style="font-weight:bold;vertical-align:top;">ajax</td><td style="vertical-align:top;">:</td><td><div>False</div></td></tr><tr><td style="font-weight:bold;vertical-align:top;">application</td><td style="vertical-align:top;">:</td><td><div>test</div></td></tr><tr><td style="font-weight:bold;vertical-align:top;">args</td><td style="vertical-align:top;">:</td><td><div><table></table></div></td></tr><tr><td style="font-weight:bold;vertical-align:top;">cid</td><td style="vertical-align:top;">:</td><td><div>None</div></td></tr><tr><td style="font-weight:bold;vertical-align:top;">client</td><td style="vertical-align:top;">:</td><td><div>127.0.0.1</div></td></tr><tr><td style="font-weight:bold;vertical-align:top;">controller</td><td style="vertical-align:top;">:</td><td><div>employee</div></td></tr><tr><td style="font-weight:bold;vertical-align:top;">cookies</td><td style="vertical-align:top;">:</td><td><div><table><tr><td style="font-weight:bold;vertical-align:top;">session_id_admin</td><td style="vertical-align:top;">:</td><td><div>127.0.0.1-3b2ec212-1560-4971-a9aa-aa269d6b38e5<table><tr><td style="font-weight:bold;vertical-align:top;">comment</td><td style="vertical-align:top;">:</td><td><div></div></td></tr><tr><td style="font-weight:bold;vertical-align:top;">domain</td><td style="vertical-align:top;">:</td><td><div></div></td></tr><tr><td style="font-weight:bold;vertical-align:top;">expires</td><td style="vertical-align:top;">:</td><td><div></div></td></tr><tr><td style="font-weight:bold;vertical-align:top;">httponly</td><td style="vertical-align:top;">:</td><td><div></div></td></tr><tr><td style="font-weight:bold;vertical-align:top;">max-age</td><td style="vertical-align:top;">:</td><td><div></div></td></tr><tr><td style="font-weight:bold;vertical-align:top;">path</td><td style="vertical-align:top;">:</td><td><div></div></td></tr><tr><td style="font-weight:bold;vertical-align:top;">secure</td><td style="vertical-align:top;">:</td><td><div></div></td></tr><tr><td style="font-weight:bold;vertical-align:top;">version</td><td style="vertical-align:top;">:</td><td><div></div></td></tr></table></div></td></tr><tr><td style="font-weight:bold;vertical-align:top;">session_id_sonoline</td><td style="vertical-align:top;">:</td><td><div>127.0.0.1-671dc851-c68e-43fc-89c2-9cc4cf9460bd<table><tr><td style="font-weight:bold;vertical-align:top;">comment</td><td style="vertical-align:top;">:</td><td><div></div></td></tr><tr><td style="font-weight:bold;vertical-align:top;">domain</td><td style="vertical-align:top;">:</td><td><div></div></td></tr><tr><td style="font-weight:bold;vertical-align:top;">expires</td><td style="vertical-align:top;">:</td><td><div></div></td></tr><tr><td style="font-weight:bold;vertical-align:top;">httponly</td><td style="vertical-align:top;">:</td><td><div></div></td></tr><tr><td style="font-weight:bold;vertical-align:top;">max-age</td><td style="vertical-align:top;">:</td><td><div></div></td></tr><tr><td style="font-weight:bold;vertical-align:top;">path</td><td style="vertical-align:top;">:</td><td><div></div></td></tr><tr><td style="font-weight:bold;vertical-align:top;">secure</td><td style="vertical-align:top;">:</td><td><div></div></td></tr><tr><td style="font-weight:bold;vertical-align:top;">version</td><td style="vertical-align:top;">:</td><td><div></div></td></tr></table></div></td></tr><tr><td style="font-weight:bold;vertical-align:top;">session_id_sonoline_player</td><td style="vertical-align:top;">:</td><td><div>127.0.0.1-e1927753-f3ea-4aa4-a5c3-6b1e4a994650<table><tr><td style="font-weight:bold;vertical-align:top;">comment</td><td style="vertical-align:top;">:</td><td><div></div></td></tr><tr><td style="font-weight:bold;vertical-align:top;">domain</td><td style="vertical-align:top;">:</td><td><div></div></td></tr><tr><td style="font-weight:bold;vertical-align:top;">expires</td><td style="vertical-align:top;">:</td><td><div></div></td></tr><tr><td style="font-weight:bold;vertical-align:top;">httponly</td><td style="vertical-align:top;">:</td><td><div></div></td></tr><tr><td style="font-weight:bold;vertical-align:top;">max-age</td><td style="vertical-align:top;">:</td><td><div></div></td></tr><tr><td style="font-weight:bold;vertical-align:top;">path</td><td style="vertical-align:top;">:</td><td><div></div></td></tr><tr><td style="font-weight:bold;vertical-align:top;">secure</td><td style="vertical-align:top;">:</td><td><div></div></td></tr><tr><td style="font-weight:bold;vertical-align:top;">version</td><td style="vertical-align:top;">:</td><td><div></div></td></tr></table></div></td></tr><tr><td style="font-weight:bold;vertical-align:top;">session_id_test</td><td style="vertical-align:top;">:</td><td><div>127.0.0.1-0d588566-6888-4eed-8b21-34cc78c84a81<table><tr><td style="font-weight:bold;vertical-align:top;">comment</td><td style="vertical-align:top;">:</td><td><div></div></td></tr><tr><td style="font-weight:bold;vertical-align:top;">domain</td><td style="vertical-align:top;">:</td><td><div></div></td></tr><tr><td style="font-weight:bold;vertical-align:top;">expires</td><td style="vertical-align:top;">:</td><td><div></div></td></tr><tr><td style="font-weight:bold;vertical-align:top;">httponly</td><td style="vertical-align:top;">:</td><td><div></div></td></tr><tr><td style="font-weight:bold;vertical-align:top;">max-age</td><td style="vertical-align:top;">:</td><td><div></div></td></tr><tr><td style="font-weight:bold;vertical-align:top;">path</td><td style="vertical-align:top;">:</td><td><div></div></td></tr><tr><td style="font-weight:bold;vertical-align:top;">secure</td><td style="vertical-align:top;">:</td><td><div></div></td></tr><tr><td style="font-weight:bold;vertical-align:top;">version</td><td style="vertical-align:top;">:</td><td><div></div></td></tr></table></div></td></tr><tr><td style="font-weight:bold;vertical-align:top;">session_id_welcome</td><td style="vertical-align:top;">:</td><td><div>127.0.0.1-2dfa75b7-a388-4f53-938a-b77296009d2f<table><tr><td style="font-weight:bold;vertical-align:top;">comment</td><td style="vertical-align:top;">:</td><td><div></div></td></tr><tr><td style="font-weight:bold;vertical-align:top;">domain</td><td style="vertical-align:top;">:</td><td><div></div></td></tr><tr><td style="font-weight:bold;vertical-align:top;">expires</td><td style="vertical-align:top;">:</td><td><div></div></td></tr><tr><td style="font-weight:bold;vertical-align:top;">httponly</td><td style="vertical-align:top;">:</td><td><div></div></td></tr><tr><td style="font-weight:bold;vertical-align:top;">max-age</td><td style="vertical-align:top;">:</td><td><div></div></td></tr><tr><td style="font-weight:bold;vertical-align:top;">path</td><td style="vertical-align:top;">:</td><td><div></div></td></tr><tr><td style="font-weight:bold;vertical-align:top;">secure</td><td style="vertical-align:top;">:</td><td><div></div></td></tr><tr><td style="font-weight:bold;vertical-align:top;">version</td><td style="vertical-align:top;">:</td><td><div></div></td></tr></table></div></td></tr></table></div></td></tr><tr><td style="font-weight:bold;vertical-align:top;">env</td><td style="vertical-align:top;">:</td><td><div><table><tr><td style="font-weight:bold;vertical-align:top;">HTTP_ACCEPT</td><td style="vertical-align:top;">:</td><td><div>text/html,application/xhtml+xml,application/xml;q=0.9,image/webp,image/apng,*/*;q=0.8,application/signed-exchange;v=b3</div></td></tr><tr><td style="font-weight:bold;vertical-align:top;">HTTP_ACCEPT_ENCODING</td><td style="vertical-align:top;">:</td><td><div>gzip, deflate, br</div></td></tr><tr><td style="font-weight:bold;vertical-align:top;">HTTP_ACCEPT_LANGUAGE</td><td style="vertical-align:top;">:</td><td><div>es-419,es;q=0.9</div></td></tr><tr><td style="font-weight:bold;vertical-align:top;">HTTP_CACHE_CONTROL</td><td style="vertical-align:top;">:</td><td><div>max-age=0</div></td></tr><tr><td style="font-weight:bold;vertical-align:top;">HTTP_CONNECTION</td><td style="vertical-align:top;">:</td><td><div>keep-alive</div></td></tr><tr><td style="font-weight:bold;vertical-align:top;">HTTP_COOKIE</td><td style="vertical-align:top;">:</td><td><div>session_id_sonoline_player=127.0.0.1-e1927753-f3ea-4aa4-a5c3-6b1e4a994650; session_id_admin=127.0.0.1-3b2ec212-1560-4971-a9aa-aa269d6b38e5; session_id_sonoline=127.0.0.1-671dc851-c68e-43fc-89c2-9cc4cf9460bd; session_id_welcome=127.0.0.1-2dfa75b7-a388-4f53-938a-b77296009d2f; session_id_test=127.0.0.1-0d588566-6888-4eed-8b21-34cc78c84a81</div></td></tr><tr><td style="font-weight:bold;vertical-align:top;">HTTP_HOST</td><td style="vertical-align:top;">:</td><td><div>127.0.0.1:8000</div></td></tr><tr><td style="font-weight:bold;vertical-align:top;">HTTP_SEC_FETCH_MODE</td><td style="vertical-align:top;">:</td><td><div>navigate</div></td></tr><tr><td style="font-weight:bold;vertical-align:top;">HTTP_SEC_FETCH_SITE</td><td style="vertical-align:top;">:</td><td><div>none</div></td></tr><tr><td style="font-weight:bold;vertical-align:top;">HTTP_SEC_FETCH_USER</td><td style="vertical-align:top;">:</td><td><div>?1</div></td></tr><tr><td style="font-weight:bold;vertical-align:top;">HTTP_UPGRADE_INSECURE_REQUESTS</td><td style="vertical-align:top;">:</td><td><div>1</div></td></tr><tr><td style="font-weight:bold;vertical-align:top;">HTTP_USER_AGENT</td><td style="vertical-align:top;">:</td><td><div>Mozilla/5.0 (Macintosh; Intel Mac OS X 10_14_5) AppleWebKit/537.36 (KHTML, like Gecko) Chrome/76.0.3809.100 Safari/537.36</div></td></tr><tr><td style="font-weight:bold;vertical-align:top;">PATH_INFO</td><td style="vertical-align:top;">:</td><td><div>/test/employee/new</div></td></tr><tr><td style="font-weight:bold;vertical-align:top;">QUERY_STRING</td><td style="vertical-align:top;">:</td><td><div></div></td></tr><tr><td style="font-weight:bold;vertical-align:top;">REMOTE_ADDR</td><td style="vertical-align:top;">:</td><td><div>127.0.0.1</div></td></tr><tr><td style="font-weight:bold;vertical-align:top;">REMOTE_PORT</td><td style="vertical-align:top;">:</td><td><div>60485</div></td></tr><tr><td style="font-weight:bold;vertical-align:top;">REQUEST_METHOD</td><td style="vertical-align:top;">:</td><td><div>GET</div></td></tr><tr><td style="font-weight:bold;vertical-align:top;">SCRIPT_NAME</td><td style="vertical-align:top;">:</td><td><div></div></td></tr><tr><td style="font-weight:bold;vertical-align:top;">SERVER_NAME</td><td style="vertical-align:top;">:</td><td><div>MacBook-Air-de-Nic.local</div></td></tr><tr><td style="font-weight:bold;vertical-align:top;">SERVER_PORT</td><td style="vertical-align:top;">:</td><td><div>8000</div></td></tr><tr><td style="font-weight:bold;vertical-align:top;">SERVER_PROTOCOL</td><td style="vertical-align:top;">:</td><td><div>HTTP/1.1</div></td></tr><tr><td style="font-weight:bold;vertical-align:top;">SERVER_SOFTWARE</td><td style="vertical-align:top;">:</td><td><div>Rocket 1.2.6</div></td></tr><tr><td style="font-weight:bold;vertical-align:top;">app_folders</td><td style="vertical-align:top;">:</td><td><div>set([&#x27;/Users/nic/Dev/web2py/applications/test&#x27;])</div></td></tr><tr><td style="font-weight:bold;vertical-align:top;">applications_parent</td><td style="vertical-align:top;">:</td><td><div>/Users/nic/Dev/web2py</div></td></tr><tr><td style="font-weight:bold;vertical-align:top;">cmd_args</td><td style="vertical-align:top;">:</td><td><div><table></table></div></td></tr><tr><td style="font-weight:bold;vertical-align:top;">cmd_options</td><td style="vertical-align:top;">:</td><td><div>&lt;Values at 0x111e2a4d0: {&#x27;verbose&#x27;: False, &#x27;ip&#x27;: &#x27;127.0.0.1&#x27;, &#x27;debuglevel&#x27;: 30, &#x27;with_scheduler&#x27;: False, &#x27;shutdown_timeout&#x27;: 5, &#x27;taskbar&#x27;: False, &#x27;with_coverage&#x27;: False, &#x27;pid_filename&#x27;: &#x27;httpserver.pid&#x27;, &#x27;maxthreads&#x27;: None, &#x27;softcron&#x27;: False, &#x27;server_name&#x27;: &#x27;MacBook-Air-de-Nic.local&#x27;, &#x27;bpython&#x27;: False, &#x27;nogui&#x27;: False, &#x27;port&#x27;: 8000, &#x27;print_errors&#x27;: False, &#x27;extcron&#x27;: False, &#x27;runcron&#x27;: False, &#x27;run_system_tests&#x27;: False, &#x27;test&#x27;: None, &#x27;folder&#x27;: &#x27;/Users/nic/Dev/web2py&#x27;, &#x27;config&#x27;: &#x27;&#x27;, &#x27;minthreads&#x27;: None, &#x27;shell&#x27;: None, &#x27;run&#x27;: &#x27;&#x27;, &#x27;log_filename&#x27;: &#x27;httpserver.log&#x27;, &#x27;profiler_dir&#x27;: None, &#x27;args&#x27;: [], &#x27;socket_timeout&#x27;: 5, &#x27;ssl_ca_certificate&#x27;: None, &#x27;scheduler&#x27;: None, &#x27;interfaces&#x27;: None, &#x27;ssl_private_key&#x27;: &#x27;&#x27;, &#x27;gae&#x27;: None, &#x27;password&#x27;: &#x27;******&#x27;, &#x27;request_queue_size&#x27;: 5, &#x27;ssl_certificate&#x27;: &#x27;&#x27;, &#x27;cronjob&#x27;: False, &#x27;numthreads&#x27;: None, &#x27;quiet&#x27;: False, &#x27;import_models&#x27;: False, &#x27;timeout&#x27;: 10, &#x27;plain&#x27;: False, &#x27;nobanner&#x27;: False}&gt;</div></td></tr><tr><td style="font-weight:bold;vertical-align:top;">db_sessions</td><td style="vertical-align:top;">:</td><td><div>set([])</div></td></tr><tr><td style="font-weight:bold;vertical-align:top;">debugging</td><td style="vertical-align:top;">:</td><td><div>False</div></td></tr><tr><td style="font-weight:bold;vertical-align:top;">gluon_parent</td><td style="vertical-align:top;">:</td><td><div>/Users/nic/Dev/web2py</div></td></tr><tr><td style="font-weight:bold;vertical-align:top;">http_accept</td><td style="vertical-align:top;">:</td><td><div>text/html,application/xhtml+xml,application/xml;q=0.9,image/webp,image/apng,*/*;q=0.8,application/signed-exchange;v=b3</div></td></tr><tr><td style="font-weight:bold;vertical-align:top;">http_accept_encoding</td><td style="vertical-align:top;">:</td><td><div>gzip, deflate, br</div></td></tr><tr><td style="font-weight:bold;vertical-align:top;">http_accept_language</td><td style="vertical-align:top;">:</td><td><div>es-419,es;q=0.9</div></td></tr><tr><td style="font-weight:bold;vertical-align:top;">http_cache_control</td><td style="vertical-align:top;">:</td><td><div>max-age=0</div></td></tr><tr><td style="font-weight:bold;vertical-align:top;">http_connection</td><td style="vertical-align:top;">:</td><td><div>keep-alive</div></td></tr><tr><td style="font-weight:bold;vertical-align:top;">http_cookie</td><td style="vertical-align:top;">:</td><td><div>session_id_sonoline_player=127.0.0.1-e1927753-f3ea-4aa4-a5c3-6b1e4a994650; session_id_admin=127.0.0.1-3b2ec212-1560-4971-a9aa-aa269d6b38e5; session_id_sonoline=127.0.0.1-671dc851-c68e-43fc-89c2-9cc4cf9460bd; session_id_welcome=127.0.0.1-2dfa75b7-a388-4f53-938a-b77296009d2f; session_id_test=127.0.0.1-0d588566-6888-4eed-8b21-34cc78c84a81</div></td></tr><tr><td style="font-weight:bold;vertical-align:top;">http_host</td><td style="vertical-align:top;">:</td><td><div>127.0.0.1:8000</div></td></tr><tr><td style="font-weight:bold;vertical-align:top;">http_sec_fetch_mode</td><td style="vertical-align:top;">:</td><td><div>navigate</div></td></tr><tr><td style="font-weight:bold;vertical-align:top;">http_sec_fetch_site</td><td style="vertical-align:top;">:</td><td><div>none</div></td></tr><tr><td style="font-weight:bold;vertical-align:top;">http_sec_fetch_user</td><td style="vertical-align:top;">:</td><td><div>?1</div></td></tr><tr><td style="font-weight:bold;vertical-align:top;">http_upgrade_insecure_requests</td><td style="vertical-align:top;">:</td><td><div>1</div></td></tr><tr><td style="font-weight:bold;vertical-align:top;">http_user_agent</td><td style="vertical-align:top;">:</td><td><div>Mozilla/5.0 (Macintosh; Intel Mac OS X 10_14_5) AppleWebKit/537.36 (KHTML, like Gecko) Chrome/76.0.3809.100 Safari/537.36</div></td></tr><tr><td style="font-weight:bold;vertical-align:top;">is_jython</td><td style="vertical-align:top;">:</td><td><div>False</div></td></tr><tr><td style="font-weight:bold;vertical-align:top;">is_py2</td><td style="vertical-align:top;">:</td><td><div>True</div></td></tr><tr><td style="font-weight:bold;vertical-align:top;">is_pypy</td><td style="vertical-align:top;">:</td><td><div>False</div></td></tr><tr><td style="font-weight:bold;vertical-align:top;">is_source</td><td style="vertical-align:top;">:</td><td><div>True</div></td></tr><tr><td style="font-weight:bold;vertical-align:top;">path_info</td><td style="vertical-align:top;">:</td><td><div>/test/employee/new</div></td></tr><tr><td style="font-weight:bold;vertical-align:top;">query_string</td><td style="vertical-align:top;">:</td><td><div></div></td></tr><tr><td style="font-weight:bold;vertical-align:top;">remote_addr</td><td style="vertical-align:top;">:</td><td><div>127.0.0.1</div></td></tr><tr><td style="font-weight:bold;vertical-align:top;">remote_port</td><td style="vertical-align:top;">:</td><td><div>60485</div></td></tr><tr><td style="font-weight:bold;vertical-align:top;">request_method</td><td style="vertical-align:top;">:</td><td><div>GET</div></td></tr><tr><td style="font-weight:bold;vertical-align:top;">request_uri</td><td style="vertical-align:top;">:</td><td><div>/test/employee/new</div></td></tr><tr><td style="font-weight:bold;vertical-align:top;">script_name</td><td style="vertical-align:top;">:</td><td><div></div></td></tr><tr><td style="font-weight:bold;vertical-align:top;">server_name</td><td style="vertical-align:top;">:</td><td><div>MacBook-Air-de-Nic.local</div></td></tr><tr><td style="font-weight:bold;vertical-align:top;">server_port</td><td style="vertical-align:top;">:</td><td><div>8000</div></td></tr><tr><td style="font-weight:bold;vertical-align:top;">server_protocol</td><td style="vertical-align:top;">:</td><td><div>HTTP/1.1</div></td></tr><tr><td style="font-weight:bold;vertical-align:top;">server_software</td><td style="vertical-align:top;">:</td><td><div>Rocket 1.2.6</div></td></tr><tr><td style="font-weight:bold;vertical-align:top;">web2py_path</td><td style="vertical-align:top;">:</td><td><div>/Users/nic/Dev/web2py</div></td></tr><tr><td style="font-weight:bold;vertical-align:top;">web2py_version</td><td style="vertical-align:top;">:</td><td><div>2.18.5-stable+timestamp.2019.04.08.04.22.03</div></td></tr><tr><td style="font-weight:bold;vertical-align:top;">wsgi.errors</td><td style="vertical-align:top;">:</td><td><div>&lt;open file &#x27;&lt;stderr&gt;&#x27;, mode &#x27;w&#x27; at 0x10eac41e0&gt;</div></td></tr><tr><td style="font-weight:bold;vertical-align:top;">wsgi.file_wrapper</td><td style="vertical-align:top;">:</td><td><div>&lt;class wsgiref.util.FileWrapper at 0x10fbe0530&gt;</div></td></tr><tr><td style="font-weight:bold;vertical-align:top;">wsgi.input</td><td style="vertical-align:top;">:</td><td><div>&lt;socket._fileobject object at 0x10fb22e50&gt;</div></td></tr><tr><td style="font-weight:bold;vertical-align:top;">wsgi.multiprocess</td><td style="vertical-align:top;">:</td><td><div>False</div></td></tr><tr><td style="font-weight:bold;vertical-align:top;">wsgi.multithread</td><td style="vertical-align:top;">:</td><td><div>True</div></td></tr><tr><td style="font-weight:bold;vertical-align:top;">wsgi.run_once</td><td style="vertical-align:top;">:</td><td><div>False</div></td></tr><tr><td style="font-weight:bold;vertical-align:top;">wsgi.url_scheme</td><td style="vertical-align:top;">:</td><td><div>http</div></td></tr><tr><td style="font-weight:bold;vertical-align:top;">wsgi.version</td><td style="vertical-align:top;">:</td><td><div><table><tr><td><div>1</div></td></tr><tr><td><div>0</div></td></tr></table></div></td></tr><tr><td style="font-weight:bold;vertical-align:top;">wsgi_errors</td><td style="vertical-align:top;">:</td><td><div>&lt;open file &#x27;&lt;stderr&gt;&#x27;, mode &#x27;w&#x27; at 0x10eac41e0&gt;</div></td></tr><tr><td style="font-weight:bold;vertical-align:top;">wsgi_file_wrapper</td><td style="vertical-align:top;">:</td><td><div>&lt;class wsgiref.util.FileWrapper at 0x10fbe0530&gt;</div></td></tr><tr><td style="font-weight:bold;vertical-align:top;">wsgi_input</td><td style="vertical-align:top;">:</td><td><div>&lt;socket._fileobject object at 0x10fb22e50&gt;</div></td></tr><tr><td style="font-weight:bold;vertical-align:top;">wsgi_multiprocess</td><td style="vertical-align:top;">:</td><td><div>False</div></td></tr><tr><td style="font-weight:bold;vertical-align:top;">wsgi_multithread</td><td style="vertical-align:top;">:</td><td><div>True</div></td></tr><tr><td style="font-weight:bold;vertical-align:top;">wsgi_run_once</td><td style="vertical-align:top;">:</td><td><div>False</div></td></tr><tr><td style="font-weight:bold;vertical-align:top;">wsgi_url_scheme</td><td style="vertical-align:top;">:</td><td><div>http</div></td></tr><tr><td style="font-weight:bold;vertical-align:top;">wsgi_version</td><td style="vertical-align:top;">:</td><td><div><table><tr><td><div>1</div></td></tr><tr><td><div>0</div></td></tr></table></div></td></tr></table></div></td></tr><tr><td style="font-weight:bold;vertical-align:top;">extension</td><td style="vertical-align:top;">:</td><td><div>html</div></td></tr><tr><td style="font-weight:bold;vertical-align:top;">folder</td><td style="vertical-align:top;">:</td><td><div>/Users/nic/Dev/web2py/applications/test</div></td></tr><tr><td style="font-weight:bold;vertical-align:top;">function</td><td style="vertical-align:top;">:</td><td><div>new</div></td></tr><tr><td style="font-weight:bold;vertical-align:top;">global_settings</td><td style="vertical-align:top;">:</td><td><div><table><tr><td style="font-weight:bold;vertical-align:top;">app_folders</td><td style="vertical-align:top;">:</td><td><div>set([&#x27;/Users/nic/Dev/web2py/applications/test&#x27;])</div></td></tr><tr><td style="font-weight:bold;vertical-align:top;">applications_parent</td><td style="vertical-align:top;">:</td><td><div>/Users/nic/Dev/web2py</div></td></tr><tr><td style="font-weight:bold;vertical-align:top;">cmd_args</td><td style="vertical-align:top;">:</td><td><div><table></table></div></td></tr><tr><td style="font-weight:bold;vertical-align:top;">cmd_options</td><td style="vertical-align:top;">:</td><td><div>&lt;Values at 0x111e2a4d0: {&#x27;verbose&#x27;: False, &#x27;ip&#x27;: &#x27;127.0.0.1&#x27;, &#x27;debuglevel&#x27;: 30, &#x27;with_scheduler&#x27;: False, &#x27;shutdown_timeout&#x27;: 5, &#x27;taskbar&#x27;: False, &#x27;with_coverage&#x27;: False, &#x27;pid_filename&#x27;: &#x27;httpserver.pid&#x27;, &#x27;maxthreads&#x27;: None, &#x27;softcron&#x27;: False, &#x27;server_name&#x27;: &#x27;MacBook-Air-de-Nic.local&#x27;, &#x27;bpython&#x27;: False, &#x27;nogui&#x27;: False, &#x27;port&#x27;: 8000, &#x27;print_errors&#x27;: False, &#x27;extcron&#x27;: False, &#x27;runcron&#x27;: False, &#x27;run_system_tests&#x27;: False, &#x27;test&#x27;: None, &#x27;folder&#x27;: &#x27;/Users/nic/Dev/web2py&#x27;, &#x27;config&#x27;: &#x27;&#x27;, &#x27;minthreads&#x27;: None, &#x27;shell&#x27;: None, &#x27;run&#x27;: &#x27;&#x27;, &#x27;log_filename&#x27;: &#x27;httpserver.log&#x27;, &#x27;profiler_dir&#x27;: None, &#x27;args&#x27;: [], &#x27;socket_timeout&#x27;: 5, &#x27;ssl_ca_certificate&#x27;: None, &#x27;scheduler&#x27;: None, &#x27;interfaces&#x27;: None, &#x27;ssl_private_key&#x27;: &#x27;&#x27;, &#x27;gae&#x27;: None, &#x27;password&#x27;: &#x27;******&#x27;, &#x27;request_queue_size&#x27;: 5, &#x27;ssl_certificate&#x27;: &#x27;&#x27;, &#x27;cronjob&#x27;: False, &#x27;numthreads&#x27;: None, &#x27;quiet&#x27;: False, &#x27;import_models&#x27;: False, &#x27;timeout&#x27;: 10, &#x27;plain&#x27;: False, &#x27;nobanner&#x27;: False}&gt;</div></td></tr><tr><td style="font-weight:bold;vertical-align:top;">db_sessions</td><td style="vertical-align:top;">:</td><td><div>set([])</div></td></tr><tr><td style="font-weight:bold;vertical-align:top;">debugging</td><td style="vertical-align:top;">:</td><td><div>False</div></td></tr><tr><td style="font-weight:bold;vertical-align:top;">gluon_parent</td><td style="vertical-align:top;">:</td><td><div>/Users/nic/Dev/web2py</div></td></tr><tr><td style="font-weight:bold;vertical-align:top;">is_jython</td><td style="vertical-align:top;">:</td><td><div>False</div></td></tr><tr><td style="font-weight:bold;vertical-align:top;">is_py2</td><td style="vertical-align:top;">:</td><td><div>True</div></td></tr><tr><td style="font-weight:bold;vertical-align:top;">is_pypy</td><td style="vertical-align:top;">:</td><td><div>False</div></td></tr><tr><td style="font-weight:bold;vertical-align:top;">is_source</td><td style="vertical-align:top;">:</td><td><div>True</div></td></tr><tr><td style="font-weight:bold;vertical-align:top;">local_hosts</td><td style="vertical-align:top;">:</td><td><div><table><tr><td><div>fe80::cb5:c84a:e02e:28b7%en0</div></td></tr><tr><td><div>::ffff:127.0.0.1</div></td></tr><tr><td><div>::1</div></td></tr><tr><td><div>MacBook-Air-de-Nic.local</div></td></tr><tr><td><div>1.0.0.127.in-addr.arpa</div></td></tr><tr><td><div>127.0.0.1</div></td></tr></table></div></td></tr><tr><td style="font-weight:bold;vertical-align:top;">web2py_version</td><td style="vertical-align:top;">:</td><td><div>2.18.5-stable+timestamp.2019.04.08.04.22.03</div></td></tr></table></div></td></tr><tr><td style="font-weight:bold;vertical-align:top;">is_https</td><td style="vertical-align:top;">:</td><td><div>False</div></td></tr><tr><td style="font-weight:bold;vertical-align:top;">is_local</td><td style="vertical-align:top;">:</td><td><div>True</div></td></tr><tr><td style="font-weight:bold;vertical-align:top;">is_restful</td><td style="vertical-align:top;">:</td><td><div>False</div></td></tr><tr><td style="font-weight:bold;vertical-align:top;">is_scheduler</td><td style="vertical-align:top;">:</td><td><div>False</div></td></tr><tr><td style="font-weight:bold;vertical-align:top;">is_shell</td><td style="vertical-align:top;">:</td><td><div>False</div></td></tr><tr><td style="font-weight:bold;vertical-align:top;">method</td><td style="vertical-align:top;">:</td><td><div>GET</div></td></tr><tr><td style="font-weight:bold;vertical-align:top;">now</td><td style="vertical-align:top;">:</td><td><div>datetime.datetime(2019, 8, 20, 11, 3, 44, 502239)</div></td></tr><tr><td style="font-weight:bold;vertical-align:top;">raw_args</td><td style="vertical-align:top;">:</td><td><div></div></td></tr><tr><td style="font-weight:bold;vertical-align:top;">raw_extension</td><td style="vertical-align:top;">:</td><td><div>None</div></td></tr><tr><td style="font-weight:bold;vertical-align:top;">url</td><td style="vertical-align:top;">:</td><td><div>/test/employee/new</div></td></tr><tr><td style="font-weight:bold;vertical-align:top;">utcnow</td><td style="vertical-align:top;">:</td><td><div>datetime.datetime(2019, 8, 20, 15, 3, 44, 502250)</div></td></tr><tr><td style="font-weight:bold;vertical-align:top;">wsgi</td><td style="vertical-align:top;">:</td><td><div>&lt;gluon.main.LazyWSGI object at 0x111e41210&gt;</div></td></tr></table></div>'
tRp60
sS'frames'
p61
(lp62
(dp63
S'file'
p64
S'/Users/nic/Dev/web2py/gluon/restricted.py'
p65
sS'dump'
p66
(dp67
S'environment'
p68
S"{'A': <class 'gluon.html.A'>, 'ANY_OF': <class 'pydal.validators.ANY_OF'>, 'ASSIGNJS': <function ASSIGNJS>, 'AppConfig': <function AppConfig>, 'Auth': <class 'gluon.tools.Auth'>, 'B': <class 'gluon.html.B'>, 'BEAUTIFY': <class 'gluon.html.BEAUTIFY'>, 'BODY': <class 'gluon.html.BODY'>, 'BR': <class 'gluon.html.BR'>, 'BUTTON': <class 'gluon.html.BUTTON'>, ...}"
p69
sS'ccode'
p70
S'<code object <module> at 0x1122b0230, file "/Use...py/applications/test/models/db_model.py", line 3>'
p71
ssS'lnum'
p72
I219
sS'lines'
p73
(dp74
I214
S'    if environment is None:'
p75
sI215
S'        environment = {}'
p76
sI216
S"    environment['__file__'] = layer"
p77
sI217
S"    environment['__name__'] = '__restricted__'"
p78
sI218
S'    try:'
p79
sI219
S'        exec(ccode, environment)'
p80
sI220
S'    except HTTP:'
p81
sI221
S'        raise'
p82
sI222
S'    except RestrictedError:'
p83
sI223
S'        # do not encapsulate (obfuscate) the original RestrictedError'
p84
ssS'call'
p85
S'(ccode=<code object <module> at 0x1122b0230, file "/Use...py/applications/test/models/db_model.py", line 3>, environment={\'A\': <class \'gluon.html.A\'>, \'ANY_OF\': <class \'pydal.validators.ANY_OF\'>, \'ASSIGNJS\': <function ASSIGNJS>, \'AppConfig\': <function AppConfig>, \'Auth\': <class \'gluon.tools.Auth\'>, \'B\': <class \'gluon.html.B\'>, \'BEAUTIFY\': <class \'gluon.html.BEAUTIFY\'>, \'BODY\': <class \'gluon.html.BODY\'>, \'BR\': <class \'gluon.html.BR\'>, \'BUTTON\': <class \'gluon.html.BUTTON\'>, ...}, layer=\'/Users/nic/Dev/web2py/applications/test/models/db_model.py\', scode=<code object <module> at 0x1122b0230, file "/Use...py/applications/test/models/db_model.py", line 3>)'
p86
sS'func'
p87
S'restricted'
p88
sa(dp89
g64
S'/Users/nic/Dev/web2py/applications/test/models/db_model.py'
p90
sg66
(dp91
S'builtinformat'
p92
S'<built-in function format>'
p93
ssg72
I28
sg73
(dp94
I20
S'    Field(\'last_name\',requires=IS_NOT_EMPTY(error_message="Este campo es obligatorio.")),'
p95
sI21
S"    Field('gender_id', 'reference gender' , SQLFORM.widgets.options.widget),"
p96
sI22
S'    Field(\'birth_date\', \'date\',requires=IS_NOT_EMPTY(error_message="Este campo es obligatorio.")),'
p97
sI23
S'    Field(\'email\',requires=IS_NOT_EMPTY(error_message="Este campo es obligatorio.")),'
p98
sI24
S"    Field('phone','integer'),"
p99
sI25
S"    Field('address'),"
p100
sI26
S"    Field('profession_id','reference profession', SQLFORM.widgets.options.widget),"
p101
sI27
S'    Field(\'years_exp\', \'integer\',SQLFORM.widgets.options.widget,requires=IS_NOT_EMPTY(error_message="Este campo es obligatorio.")),'
p102
sI28
S"    format='%(first_name)s',"
p103
sI29
S')'
ssg85
S'()'
p104
sg87
S'<module>'
p105
sa(dp106
g64
S'/Users/nic/Dev/web2py/gluon/packages/dal/pydal/base.py'
p107
sg66
(dp108
S'fields'
p109
S'(<pydal.objects.Field object>, <pydal.objects.Field object>, <pydal.objects.Field object>, <pydal.objects.Field object>, <pydal.objects.Field object>, <pydal.objects.Field object>, <pydal.objects.Field object>, <pydal.objects.Field object>, <pydal.objects.Field object>)'
p110
sS'self'
p111
S'<DAL uri="postgres://******@localhost/test">'
p112
sS'tablename'
p113
S"'employee'"
p114
sS'kwargs'
p115
S"{'format': '%(first_name)s'}"
p116
sS'table'
p117
S'undefined'
p118
sS'self.lazy_define_table'
p119
S'<bound method DAL.lazy_define_table of <DAL uri="postgres://******@localhost/test">>'
p120
ssg72
I592
sg73
(dp121
I587
S'        if self._lazy_tables:'
p122
sI588
S'            if tablename not in self._LAZY_TABLES or redefine:'
p123
sI589
S'                self._LAZY_TABLES[tablename] = (tablename, fields, kwargs)'
p124
sI590
S'            table = None'
p125
sI591
S'        else:'
p126
sI592
S'            table = self.lazy_define_table(tablename, *fields, **kwargs)'
p127
sI593
S'        if tablename not in self.tables:'
p128
sI594
S'            self.tables.append(tablename)'
p129
sI595
S'        return table'
p130
sI596
S''
ssg85
S'(self=<DAL uri="postgres://******@localhost/test">, tablename=\'employee\', *fields=(<pydal.objects.Field object>, <pydal.objects.Field object>, <pydal.objects.Field object>, <pydal.objects.Field object>, <pydal.objects.Field object>, <pydal.objects.Field object>, <pydal.objects.Field object>, <pydal.objects.Field object>, <pydal.objects.Field object>), **kwargs={\'format\': \'%(first_name)s\'})'
p131
sg87
S'define_table'
p132
sa(dp133
g64
S'/Users/nic/Dev/web2py/gluon/packages/dal/pydal/base.py'
p134
sg66
(dp135
S'polymodel'
p136
S'None'
p137
ssg72
I626
sg73
(dp138
I621
S'            try:'
p139
sI622
S'                GLOBAL_LOCKER.acquire()'
p140
sI623
S'                self._adapter.create_table('
p141
sI624
S'                    table, migrate=migrate,'
p142
sI625
S'                    fake_migrate=fake_migrate,'
p143
sI626
S'                    polymodel=polymodel)'
p144
sI627
S'            finally:'
p145
sI628
S'                GLOBAL_LOCKER.release()'
p146
sI629
S'        else:'
p147
sI630
S'            table._dbt = None'
p148
ssg85
S'(self=<DAL uri="postgres://******@localhost/test">, tablename=\'employee\', *fields=(<pydal.objects.Field object>, <pydal.objects.Field object>, <pydal.objects.Field object>, <pydal.objects.Field object>, <pydal.objects.Field object>, <pydal.objects.Field object>, <pydal.objects.Field object>, <pydal.objects.Field object>, <pydal.objects.Field object>), **kwargs={\'format\': \'%(first_name)s\'})'
p149
sg87
S'lazy_define_table'
p150
sa(dp151
g64
S'/Users/nic/Dev/web2py/gluon/packages/dal/pydal/adapters/base.py'
p152
sg66
(dp153
S'self'
p154
S'<pydal.adapters.postgres.PostgrePsyco object>'
p155
sS'args'
p156
S'(<Table employee (id, first_name, last_name, gend...email, phone, address, profession_id, years_exp)>,)'
p157
sS'self.migrator'
p158
S'<pydal.migrator.Migrator object>'
p159
sS'self.migrator.create_table'
p160
S'<bound method Migrator.create_table of <pydal.migrator.Migrator object>>'
p161
sS'kwargs'
p162
S"{'fake_migrate': True, 'migrate': True, 'polymodel': None}"
p163
ssg72
I798
sg73
(dp164
I800
S'    def _drop_table_cleanup(self, table):'
p165
sI801
S'        super(SQLAdapter, self)._drop_table_cleanup(table)'
p166
sI802
S'        if table._dbt:'
p167
sI793
S''
sI794
S'    def bulk_insert(self, table, items):'
p168
sI795
S'        return [self.insert(table, item) for item in items]'
p169
sI796
S''
sI797
S'    def create_table(self, *args, **kwargs):'
p170
sI798
S'        return self.migrator.create_table(*args, **kwargs)'
p171
sI799
S''
ssg85
S"(self=<pydal.adapters.postgres.PostgrePsyco object>, *args=(<Table employee (id, first_name, last_name, gend...email, phone, address, profession_id, years_exp)>,), **kwargs={'fake_migrate': True, 'migrate': True, 'polymodel': None})"
p172
sg87
S'create_table'
p173
sa(dp174
g64
S'/Users/nic/Dev/web2py/gluon/packages/dal/pydal/migrator.py'
p175
sg66
(dp176
S'pickle.dump'
p177
S'<function dump>'
p178
sS'sql_fields'
p179
S'{\'address\': {\'length\': 512, \'notnull\': False, \'raw_rname\': \'address\', \'rname\': \'"address"\', \'sortable\': 8, \'sql\': \'VARCHAR(512)\', \'type\': \'string\', \'unique\': False}, \'birth_date\': {\'length\': 512, \'notnull\': False, \'raw_rname\': \'birth_date\', \'rname\': \'"birth_date"\', \'sortable\': 5, \'sql\': \'DATE\', \'type\': \'date\', \'unique\': False}, \'email\': {\'length\': 512, \'notnull\': False, \'raw_rname\': \'email\', \'rname\': \'"email"\', \'sortable\': 6, \'sql\': \'VARCHAR(512)\', \'type\': \'string\', \'unique\': False}, \'first_name\': {\'length\': 512, \'notnull\': False, \'raw_rname\': \'first_name\', \'rname\': \'"first_name"\', \'sortable\': 2, \'sql\': \'VARCHAR(512)\', \'type\': \'string\', \'unique\': False}, \'gender_id\': {\'length\': <bound method type.widget of <class \'gluon.sqlhtml.OptionsWidget\'>>, \'notnull\': False, \'raw_rname\': \'gender_id\', \'rname\': \'"gender_id"\', \'sortable\': 4, \'sql\': \'INTEGER REFERENCES "gender" ("id") ON DELETE CASCADE  \', \'type\': \'reference gender\', \'unique\': False}, \'id\': {\'length\': 512, \'notnull\': False, \'raw_rname\': \'id\', \'rname\': \'"id"\', \'sortable\': 1, \'sql\': \'SERIAL PRIMARY KEY\', \'type\': \'id\', \'unique\': False}, \'last_name\': {\'length\': 512, \'notnull\': False, \'raw_rname\': \'last_name\', \'rname\': \'"last_name"\', \'sortable\': 3, \'sql\': \'VARCHAR(512)\', \'type\': \'string\', \'unique\': False}, \'phone\': {\'length\': 512, \'notnull\': False, \'raw_rname\': \'phone\', \'rname\': \'"phone"\', \'sortable\': 7, \'sql\': \'INTEGER\', \'type\': \'integer\', \'unique\': False}, \'profession_id\': {\'length\': <bound method type.widget of <class \'gluon.sqlhtml.OptionsWidget\'>>, \'notnull\': False, \'raw_rname\': \'profession_id\', \'rname\': \'"profession_id"\', \'sortable\': 9, \'sql\': \'INTEGER REFERENCES "profession" ("id") ON DELETE CASCADE  \', \'type\': \'reference profession\', \'unique\': False}, \'years_exp\': {\'length\': <bound method type.widget of <class \'gluon.sqlhtml.OptionsWidget\'>>, \'notnull\': False, \'raw_rname\': \'years_exp\', \'rname\': \'"years_exp"\', \'sortable\': 10, \'sql\': \'INTEGER\', \'type\': \'integer\', \'unique\': False}}'
p180
sS'tfile'
p181
S'<pydal.contrib.portalocker.LockedFile object>'
p182
sS'global pickle'
p183
S"<module 'pickle' from '/System/Library/Framework...framework/Versions/2.7/lib/python2.7/pickle.pyc'>"
p184
ssg72
I290
sg73
(dp185
I288
S'            if table._dbt:'
p186
sI289
S"                tfile = self.file_open(table._dbt, 'wb')"
p187
sI290
S'                pickle.dump(sql_fields, tfile)'
p188
sI291
S'                self.file_close(tfile)'
p189
sI292
S'                if fake_migrate:'
p190
sI293
S"                    self.log('faked!\\n', table)"
p191
sI294
S'                else:'
p192
sI285
S'                for query in postcreation_fields:'
p193
sI286
S'                    self.adapter.execute(query)'
p194
sI287
S'                    db.commit()'
p195
ssg85
S'(self=<pydal.migrator.Migrator object>, table=<Table employee (id, first_name, last_name, gend...email, phone, address, profession_id, years_exp)>, migrate=True, fake_migrate=True, polymodel=None)'
p196
sg87
g173
sa(dp197
g64
S'/System/Library/Frameworks/Python.framework/Versions/2.7/lib/python2.7/pickle.py'
p198
sg66
(dp199
S'obj'
p200
S'{\'address\': {\'length\': 512, \'notnull\': False, \'raw_rname\': \'address\', \'rname\': \'"address"\', \'sortable\': 8, \'sql\': \'VARCHAR(512)\', \'type\': \'string\', \'unique\': False}, \'birth_date\': {\'length\': 512, \'notnull\': False, \'raw_rname\': \'birth_date\', \'rname\': \'"birth_date"\', \'sortable\': 5, \'sql\': \'DATE\', \'type\': \'date\', \'unique\': False}, \'email\': {\'length\': 512, \'notnull\': False, \'raw_rname\': \'email\', \'rname\': \'"email"\', \'sortable\': 6, \'sql\': \'VARCHAR(512)\', \'type\': \'string\', \'unique\': False}, \'first_name\': {\'length\': 512, \'notnull\': False, \'raw_rname\': \'first_name\', \'rname\': \'"first_name"\', \'sortable\': 2, \'sql\': \'VARCHAR(512)\', \'type\': \'string\', \'unique\': False}, \'gender_id\': {\'length\': <bound method type.widget of <class \'gluon.sqlhtml.OptionsWidget\'>>, \'notnull\': False, \'raw_rname\': \'gender_id\', \'rname\': \'"gender_id"\', \'sortable\': 4, \'sql\': \'INTEGER REFERENCES "gender" ("id") ON DELETE CASCADE  \', \'type\': \'reference gender\', \'unique\': False}, \'id\': {\'length\': 512, \'notnull\': False, \'raw_rname\': \'id\', \'rname\': \'"id"\', \'sortable\': 1, \'sql\': \'SERIAL PRIMARY KEY\', \'type\': \'id\', \'unique\': False}, \'last_name\': {\'length\': 512, \'notnull\': False, \'raw_rname\': \'last_name\', \'rname\': \'"last_name"\', \'sortable\': 3, \'sql\': \'VARCHAR(512)\', \'type\': \'string\', \'unique\': False}, \'phone\': {\'length\': 512, \'notnull\': False, \'raw_rname\': \'phone\', \'rname\': \'"phone"\', \'sortable\': 7, \'sql\': \'INTEGER\', \'type\': \'integer\', \'unique\': False}, \'profession_id\': {\'length\': <bound method type.widget of <class \'gluon.sqlhtml.OptionsWidget\'>>, \'notnull\': False, \'raw_rname\': \'profession_id\', \'rname\': \'"profession_id"\', \'sortable\': 9, \'sql\': \'INTEGER REFERENCES "profession" ("id") ON DELETE CASCADE  \', \'type\': \'reference profession\', \'unique\': False}, \'years_exp\': {\'length\': <bound method type.widget of <class \'gluon.sqlhtml.OptionsWidget\'>>, \'notnull\': False, \'raw_rname\': \'years_exp\', \'rname\': \'"years_exp"\', \'sortable\': 10, \'sql\': \'INTEGER\', \'type\': \'integer\', \'unique\': False}}'
p201
sS'protocol'
p202
S'None'
p203
sS').dump'
p204
g118
sS'file'
p205
S'<pydal.contrib.portalocker.LockedFile object>'
p206
sS'global Pickler'
p207
S'<class pickle.Pickler>'
p208
ssg72
I1370
sg73
(dp209
I1365
S'    from cStringIO import StringIO'
p210
sI1366
S'except ImportError:'
p211
sI1367
S'    from StringIO import StringIO'
p212
sI1368
S''
sI1369
S'def dump(obj, file, protocol=None):'
p213
sI1370
S'    Pickler(file, protocol).dump(obj)'
p214
sI1371
S''
sI1372
S'def dumps(obj, protocol=None):'
p215
sI1373
S'    file = StringIO()'
p216
sI1374
S'    Pickler(file, protocol).dump(obj)'
p217
ssg85
S'(obj={\'address\': {\'length\': 512, \'notnull\': False, \'raw_rname\': \'address\', \'rname\': \'"address"\', \'sortable\': 8, \'sql\': \'VARCHAR(512)\', \'type\': \'string\', \'unique\': False}, \'birth_date\': {\'length\': 512, \'notnull\': False, \'raw_rname\': \'birth_date\', \'rname\': \'"birth_date"\', \'sortable\': 5, \'sql\': \'DATE\', \'type\': \'date\', \'unique\': False}, \'email\': {\'length\': 512, \'notnull\': False, \'raw_rname\': \'email\', \'rname\': \'"email"\', \'sortable\': 6, \'sql\': \'VARCHAR(512)\', \'type\': \'string\', \'unique\': False}, \'first_name\': {\'length\': 512, \'notnull\': False, \'raw_rname\': \'first_name\', \'rname\': \'"first_name"\', \'sortable\': 2, \'sql\': \'VARCHAR(512)\', \'type\': \'string\', \'unique\': False}, \'gender_id\': {\'length\': <bound method type.widget of <class \'gluon.sqlhtml.OptionsWidget\'>>, \'notnull\': False, \'raw_rname\': \'gender_id\', \'rname\': \'"gender_id"\', \'sortable\': 4, \'sql\': \'INTEGER REFERENCES "gender" ("id") ON DELETE CASCADE  \', \'type\': \'reference gender\', \'unique\': False}, \'id\': {\'length\': 512, \'notnull\': False, \'raw_rname\': \'id\', \'rname\': \'"id"\', \'sortable\': 1, \'sql\': \'SERIAL PRIMARY KEY\', \'type\': \'id\', \'unique\': False}, \'last_name\': {\'length\': 512, \'notnull\': False, \'raw_rname\': \'last_name\', \'rname\': \'"last_name"\', \'sortable\': 3, \'sql\': \'VARCHAR(512)\', \'type\': \'string\', \'unique\': False}, \'phone\': {\'length\': 512, \'notnull\': False, \'raw_rname\': \'phone\', \'rname\': \'"phone"\', \'sortable\': 7, \'sql\': \'INTEGER\', \'type\': \'integer\', \'unique\': False}, \'profession_id\': {\'length\': <bound method type.widget of <class \'gluon.sqlhtml.OptionsWidget\'>>, \'notnull\': False, \'raw_rname\': \'profession_id\', \'rname\': \'"profession_id"\', \'sortable\': 9, \'sql\': \'INTEGER REFERENCES "profession" ("id") ON DELETE CASCADE  \', \'type\': \'reference profession\', \'unique\': False}, \'years_exp\': {\'length\': <bound method type.widget of <class \'gluon.sqlhtml.OptionsWidget\'>>, \'notnull\': False, \'raw_rname\': \'years_exp\', \'rname\': \'"years_exp"\', \'sortable\': 10, \'sql\': \'INTEGER\', \'type\': \'integer\', \'unique\': False}}, file=<pydal.contrib.portalocker.LockedFile object>, protocol=None)'
p218
sg87
g66
sa(dp219
g64
S'/System/Library/Frameworks/Python.framework/Versions/2.7/lib/python2.7/pickle.py'
p220
sg66
(dp221
S'self'
p222
S'<pickle.Pickler instance>'
p223
sS'obj'
p224
S'{\'address\': {\'length\': 512, \'notnull\': False, \'raw_rname\': \'address\', \'rname\': \'"address"\', \'sortable\': 8, \'sql\': \'VARCHAR(512)\', \'type\': \'string\', \'unique\': False}, \'birth_date\': {\'length\': 512, \'notnull\': False, \'raw_rname\': \'birth_date\', \'rname\': \'"birth_date"\', \'sortable\': 5, \'sql\': \'DATE\', \'type\': \'date\', \'unique\': False}, \'email\': {\'length\': 512, \'notnull\': False, \'raw_rname\': \'email\', \'rname\': \'"email"\', \'sortable\': 6, \'sql\': \'VARCHAR(512)\', \'type\': \'string\', \'unique\': False}, \'first_name\': {\'length\': 512, \'notnull\': False, \'raw_rname\': \'first_name\', \'rname\': \'"first_name"\', \'sortable\': 2, \'sql\': \'VARCHAR(512)\', \'type\': \'string\', \'unique\': False}, \'gender_id\': {\'length\': <bound method type.widget of <class \'gluon.sqlhtml.OptionsWidget\'>>, \'notnull\': False, \'raw_rname\': \'gender_id\', \'rname\': \'"gender_id"\', \'sortable\': 4, \'sql\': \'INTEGER REFERENCES "gender" ("id") ON DELETE CASCADE  \', \'type\': \'reference gender\', \'unique\': False}, \'id\': {\'length\': 512, \'notnull\': False, \'raw_rname\': \'id\', \'rname\': \'"id"\', \'sortable\': 1, \'sql\': \'SERIAL PRIMARY KEY\', \'type\': \'id\', \'unique\': False}, \'last_name\': {\'length\': 512, \'notnull\': False, \'raw_rname\': \'last_name\', \'rname\': \'"last_name"\', \'sortable\': 3, \'sql\': \'VARCHAR(512)\', \'type\': \'string\', \'unique\': False}, \'phone\': {\'length\': 512, \'notnull\': False, \'raw_rname\': \'phone\', \'rname\': \'"phone"\', \'sortable\': 7, \'sql\': \'INTEGER\', \'type\': \'integer\', \'unique\': False}, \'profession_id\': {\'length\': <bound method type.widget of <class \'gluon.sqlhtml.OptionsWidget\'>>, \'notnull\': False, \'raw_rname\': \'profession_id\', \'rname\': \'"profession_id"\', \'sortable\': 9, \'sql\': \'INTEGER REFERENCES "profession" ("id") ON DELETE CASCADE  \', \'type\': \'reference profession\', \'unique\': False}, \'years_exp\': {\'length\': <bound method type.widget of <class \'gluon.sqlhtml.OptionsWidget\'>>, \'notnull\': False, \'raw_rname\': \'years_exp\', \'rname\': \'"years_exp"\', \'sortable\': 10, \'sql\': \'INTEGER\', \'type\': \'integer\', \'unique\': False}}'
p225
sS'self.save'
p226
S'<bound method Pickler.save of <pickle.Pickler instance>>'
p227
ssg72
I224
sg73
(dp228
I224
S'        self.save(obj)'
p229
sI225
S'        self.write(STOP)'
p230
sI226
S''
sI227
S'    def memoize(self, obj):'
p231
sI228
S'        """Store an object in the memo."""'
p232
sI219
S''
sI220
S'    def dump(self, obj):'
p233
sI221
S'        """Write a pickled representation of obj to the open file."""'
p234
sI222
S'        if self.proto >= 2:'
p235
sI223
S'            self.write(PROTO + chr(self.proto))'
p236
ssg85
S'(self=<pickle.Pickler instance>, obj={\'address\': {\'length\': 512, \'notnull\': False, \'raw_rname\': \'address\', \'rname\': \'"address"\', \'sortable\': 8, \'sql\': \'VARCHAR(512)\', \'type\': \'string\', \'unique\': False}, \'birth_date\': {\'length\': 512, \'notnull\': False, \'raw_rname\': \'birth_date\', \'rname\': \'"birth_date"\', \'sortable\': 5, \'sql\': \'DATE\', \'type\': \'date\', \'unique\': False}, \'email\': {\'length\': 512, \'notnull\': False, \'raw_rname\': \'email\', \'rname\': \'"email"\', \'sortable\': 6, \'sql\': \'VARCHAR(512)\', \'type\': \'string\', \'unique\': False}, \'first_name\': {\'length\': 512, \'notnull\': False, \'raw_rname\': \'first_name\', \'rname\': \'"first_name"\', \'sortable\': 2, \'sql\': \'VARCHAR(512)\', \'type\': \'string\', \'unique\': False}, \'gender_id\': {\'length\': <bound method type.widget of <class \'gluon.sqlhtml.OptionsWidget\'>>, \'notnull\': False, \'raw_rname\': \'gender_id\', \'rname\': \'"gender_id"\', \'sortable\': 4, \'sql\': \'INTEGER REFERENCES "gender" ("id") ON DELETE CASCADE  \', \'type\': \'reference gender\', \'unique\': False}, \'id\': {\'length\': 512, \'notnull\': False, \'raw_rname\': \'id\', \'rname\': \'"id"\', \'sortable\': 1, \'sql\': \'SERIAL PRIMARY KEY\', \'type\': \'id\', \'unique\': False}, \'last_name\': {\'length\': 512, \'notnull\': False, \'raw_rname\': \'last_name\', \'rname\': \'"last_name"\', \'sortable\': 3, \'sql\': \'VARCHAR(512)\', \'type\': \'string\', \'unique\': False}, \'phone\': {\'length\': 512, \'notnull\': False, \'raw_rname\': \'phone\', \'rname\': \'"phone"\', \'sortable\': 7, \'sql\': \'INTEGER\', \'type\': \'integer\', \'unique\': False}, \'profession_id\': {\'length\': <bound method type.widget of <class \'gluon.sqlhtml.OptionsWidget\'>>, \'notnull\': False, \'raw_rname\': \'profession_id\', \'rname\': \'"profession_id"\', \'sortable\': 9, \'sql\': \'INTEGER REFERENCES "profession" ("id") ON DELETE CASCADE  \', \'type\': \'reference profession\', \'unique\': False}, \'years_exp\': {\'length\': <bound method type.widget of <class \'gluon.sqlhtml.OptionsWidget\'>>, \'notnull\': False, \'raw_rname\': \'years_exp\', \'rname\': \'"years_exp"\', \'sortable\': 10, \'sql\': \'INTEGER\', \'type\': \'integer\', \'unique\': False}})'
p237
sg87
g66
sa(dp238
g64
S'/System/Library/Frameworks/Python.framework/Versions/2.7/lib/python2.7/pickle.py'
p239
sg66
(dp240
S'self'
p241
S'<pickle.Pickler instance>'
p242
sS'obj'
p243
S'{\'address\': {\'length\': 512, \'notnull\': False, \'raw_rname\': \'address\', \'rname\': \'"address"\', \'sortable\': 8, \'sql\': \'VARCHAR(512)\', \'type\': \'string\', \'unique\': False}, \'birth_date\': {\'length\': 512, \'notnull\': False, \'raw_rname\': \'birth_date\', \'rname\': \'"birth_date"\', \'sortable\': 5, \'sql\': \'DATE\', \'type\': \'date\', \'unique\': False}, \'email\': {\'length\': 512, \'notnull\': False, \'raw_rname\': \'email\', \'rname\': \'"email"\', \'sortable\': 6, \'sql\': \'VARCHAR(512)\', \'type\': \'string\', \'unique\': False}, \'first_name\': {\'length\': 512, \'notnull\': False, \'raw_rname\': \'first_name\', \'rname\': \'"first_name"\', \'sortable\': 2, \'sql\': \'VARCHAR(512)\', \'type\': \'string\', \'unique\': False}, \'gender_id\': {\'length\': <bound method type.widget of <class \'gluon.sqlhtml.OptionsWidget\'>>, \'notnull\': False, \'raw_rname\': \'gender_id\', \'rname\': \'"gender_id"\', \'sortable\': 4, \'sql\': \'INTEGER REFERENCES "gender" ("id") ON DELETE CASCADE  \', \'type\': \'reference gender\', \'unique\': False}, \'id\': {\'length\': 512, \'notnull\': False, \'raw_rname\': \'id\', \'rname\': \'"id"\', \'sortable\': 1, \'sql\': \'SERIAL PRIMARY KEY\', \'type\': \'id\', \'unique\': False}, \'last_name\': {\'length\': 512, \'notnull\': False, \'raw_rname\': \'last_name\', \'rname\': \'"last_name"\', \'sortable\': 3, \'sql\': \'VARCHAR(512)\', \'type\': \'string\', \'unique\': False}, \'phone\': {\'length\': 512, \'notnull\': False, \'raw_rname\': \'phone\', \'rname\': \'"phone"\', \'sortable\': 7, \'sql\': \'INTEGER\', \'type\': \'integer\', \'unique\': False}, \'profession_id\': {\'length\': <bound method type.widget of <class \'gluon.sqlhtml.OptionsWidget\'>>, \'notnull\': False, \'raw_rname\': \'profession_id\', \'rname\': \'"profession_id"\', \'sortable\': 9, \'sql\': \'INTEGER REFERENCES "profession" ("id") ON DELETE CASCADE  \', \'type\': \'reference profession\', \'unique\': False}, \'years_exp\': {\'length\': <bound method type.widget of <class \'gluon.sqlhtml.OptionsWidget\'>>, \'notnull\': False, \'raw_rname\': \'years_exp\', \'rname\': \'"years_exp"\', \'sortable\': 10, \'sql\': \'INTEGER\', \'type\': \'integer\', \'unique\': False}}'
p244
sS'f'
S'<function save_dict>'
p245
ssg72
I286
sg73
(dp246
I288
S''
sI289
S'        # Check copy_reg.dispatch_table'
p247
sI290
S'        reduce = dispatch_table.get(t)'
p248
sI281
S''
sI282
S'        # Check the type dispatch table'
p249
sI283
S'        t = type(obj)'
p250
sI284
S'        f = self.dispatch.get(t)'
p251
sI285
S'        if f:'
p252
sI286
S'            f(self, obj) # Call unbound method with explicit self'
p253
sI287
S'            return'
p254
ssg85
S'(self=<pickle.Pickler instance>, obj={\'address\': {\'length\': 512, \'notnull\': False, \'raw_rname\': \'address\', \'rname\': \'"address"\', \'sortable\': 8, \'sql\': \'VARCHAR(512)\', \'type\': \'string\', \'unique\': False}, \'birth_date\': {\'length\': 512, \'notnull\': False, \'raw_rname\': \'birth_date\', \'rname\': \'"birth_date"\', \'sortable\': 5, \'sql\': \'DATE\', \'type\': \'date\', \'unique\': False}, \'email\': {\'length\': 512, \'notnull\': False, \'raw_rname\': \'email\', \'rname\': \'"email"\', \'sortable\': 6, \'sql\': \'VARCHAR(512)\', \'type\': \'string\', \'unique\': False}, \'first_name\': {\'length\': 512, \'notnull\': False, \'raw_rname\': \'first_name\', \'rname\': \'"first_name"\', \'sortable\': 2, \'sql\': \'VARCHAR(512)\', \'type\': \'string\', \'unique\': False}, \'gender_id\': {\'length\': <bound method type.widget of <class \'gluon.sqlhtml.OptionsWidget\'>>, \'notnull\': False, \'raw_rname\': \'gender_id\', \'rname\': \'"gender_id"\', \'sortable\': 4, \'sql\': \'INTEGER REFERENCES "gender" ("id") ON DELETE CASCADE  \', \'type\': \'reference gender\', \'unique\': False}, \'id\': {\'length\': 512, \'notnull\': False, \'raw_rname\': \'id\', \'rname\': \'"id"\', \'sortable\': 1, \'sql\': \'SERIAL PRIMARY KEY\', \'type\': \'id\', \'unique\': False}, \'last_name\': {\'length\': 512, \'notnull\': False, \'raw_rname\': \'last_name\', \'rname\': \'"last_name"\', \'sortable\': 3, \'sql\': \'VARCHAR(512)\', \'type\': \'string\', \'unique\': False}, \'phone\': {\'length\': 512, \'notnull\': False, \'raw_rname\': \'phone\', \'rname\': \'"phone"\', \'sortable\': 7, \'sql\': \'INTEGER\', \'type\': \'integer\', \'unique\': False}, \'profession_id\': {\'length\': <bound method type.widget of <class \'gluon.sqlhtml.OptionsWidget\'>>, \'notnull\': False, \'raw_rname\': \'profession_id\', \'rname\': \'"profession_id"\', \'sortable\': 9, \'sql\': \'INTEGER REFERENCES "profession" ("id") ON DELETE CASCADE  \', \'type\': \'reference profession\', \'unique\': False}, \'years_exp\': {\'length\': <bound method type.widget of <class \'gluon.sqlhtml.OptionsWidget\'>>, \'notnull\': False, \'raw_rname\': \'years_exp\', \'rname\': \'"years_exp"\', \'sortable\': 10, \'sql\': \'INTEGER\', \'type\': \'integer\', \'unique\': False}})'
p255
sg87
S'save'
p256
sa(dp257
g64
S'/System/Library/Frameworks/Python.framework/Versions/2.7/lib/python2.7/pickle.py'
p258
sg66
(dp259
S'self._batch_setitems'
p260
S'<bound method Pickler._batch_setitems of <pickle.Pickler instance>>'
p261
sS'self'
p262
S'<pickle.Pickler instance>'
p263
sS'obj'
p264
S'{\'address\': {\'length\': 512, \'notnull\': False, \'raw_rname\': \'address\', \'rname\': \'"address"\', \'sortable\': 8, \'sql\': \'VARCHAR(512)\', \'type\': \'string\', \'unique\': False}, \'birth_date\': {\'length\': 512, \'notnull\': False, \'raw_rname\': \'birth_date\', \'rname\': \'"birth_date"\', \'sortable\': 5, \'sql\': \'DATE\', \'type\': \'date\', \'unique\': False}, \'email\': {\'length\': 512, \'notnull\': False, \'raw_rname\': \'email\', \'rname\': \'"email"\', \'sortable\': 6, \'sql\': \'VARCHAR(512)\', \'type\': \'string\', \'unique\': False}, \'first_name\': {\'length\': 512, \'notnull\': False, \'raw_rname\': \'first_name\', \'rname\': \'"first_name"\', \'sortable\': 2, \'sql\': \'VARCHAR(512)\', \'type\': \'string\', \'unique\': False}, \'gender_id\': {\'length\': <bound method type.widget of <class \'gluon.sqlhtml.OptionsWidget\'>>, \'notnull\': False, \'raw_rname\': \'gender_id\', \'rname\': \'"gender_id"\', \'sortable\': 4, \'sql\': \'INTEGER REFERENCES "gender" ("id") ON DELETE CASCADE  \', \'type\': \'reference gender\', \'unique\': False}, \'id\': {\'length\': 512, \'notnull\': False, \'raw_rname\': \'id\', \'rname\': \'"id"\', \'sortable\': 1, \'sql\': \'SERIAL PRIMARY KEY\', \'type\': \'id\', \'unique\': False}, \'last_name\': {\'length\': 512, \'notnull\': False, \'raw_rname\': \'last_name\', \'rname\': \'"last_name"\', \'sortable\': 3, \'sql\': \'VARCHAR(512)\', \'type\': \'string\', \'unique\': False}, \'phone\': {\'length\': 512, \'notnull\': False, \'raw_rname\': \'phone\', \'rname\': \'"phone"\', \'sortable\': 7, \'sql\': \'INTEGER\', \'type\': \'integer\', \'unique\': False}, \'profession_id\': {\'length\': <bound method type.widget of <class \'gluon.sqlhtml.OptionsWidget\'>>, \'notnull\': False, \'raw_rname\': \'profession_id\', \'rname\': \'"profession_id"\', \'sortable\': 9, \'sql\': \'INTEGER REFERENCES "profession" ("id") ON DELETE CASCADE  \', \'type\': \'reference profession\', \'unique\': False}, \'years_exp\': {\'length\': <bound method type.widget of <class \'gluon.sqlhtml.OptionsWidget\'>>, \'notnull\': False, \'raw_rname\': \'years_exp\', \'rname\': \'"years_exp"\', \'sortable\': 10, \'sql\': \'INTEGER\', \'type\': \'integer\', \'unique\': False}}'
p265
sS'obj.iteritems'
p266
S'<built-in method iteritems of dict object>'
p267
ssg72
I649
sg73
(dp268
I644
S'            write(EMPTY_DICT)'
p269
sI645
S"        else:   # proto 0 -- can't use EMPTY_DICT"
p270
sI646
S'            write(MARK + DICT)'
p271
sI647
S''
sI648
S'        self.memoize(obj)'
p272
sI649
S'        self._batch_setitems(obj.iteritems())'
p273
sI650
S''
sI651
S'    dispatch[DictionaryType] = save_dict'
p274
sI652
S'    if not PyStringMap is None:'
p275
sI653
S'        dispatch[PyStringMap] = save_dict'
p276
ssg85
S'(self=<pickle.Pickler instance>, obj={\'address\': {\'length\': 512, \'notnull\': False, \'raw_rname\': \'address\', \'rname\': \'"address"\', \'sortable\': 8, \'sql\': \'VARCHAR(512)\', \'type\': \'string\', \'unique\': False}, \'birth_date\': {\'length\': 512, \'notnull\': False, \'raw_rname\': \'birth_date\', \'rname\': \'"birth_date"\', \'sortable\': 5, \'sql\': \'DATE\', \'type\': \'date\', \'unique\': False}, \'email\': {\'length\': 512, \'notnull\': False, \'raw_rname\': \'email\', \'rname\': \'"email"\', \'sortable\': 6, \'sql\': \'VARCHAR(512)\', \'type\': \'string\', \'unique\': False}, \'first_name\': {\'length\': 512, \'notnull\': False, \'raw_rname\': \'first_name\', \'rname\': \'"first_name"\', \'sortable\': 2, \'sql\': \'VARCHAR(512)\', \'type\': \'string\', \'unique\': False}, \'gender_id\': {\'length\': <bound method type.widget of <class \'gluon.sqlhtml.OptionsWidget\'>>, \'notnull\': False, \'raw_rname\': \'gender_id\', \'rname\': \'"gender_id"\', \'sortable\': 4, \'sql\': \'INTEGER REFERENCES "gender" ("id") ON DELETE CASCADE  \', \'type\': \'reference gender\', \'unique\': False}, \'id\': {\'length\': 512, \'notnull\': False, \'raw_rname\': \'id\', \'rname\': \'"id"\', \'sortable\': 1, \'sql\': \'SERIAL PRIMARY KEY\', \'type\': \'id\', \'unique\': False}, \'last_name\': {\'length\': 512, \'notnull\': False, \'raw_rname\': \'last_name\', \'rname\': \'"last_name"\', \'sortable\': 3, \'sql\': \'VARCHAR(512)\', \'type\': \'string\', \'unique\': False}, \'phone\': {\'length\': 512, \'notnull\': False, \'raw_rname\': \'phone\', \'rname\': \'"phone"\', \'sortable\': 7, \'sql\': \'INTEGER\', \'type\': \'integer\', \'unique\': False}, \'profession_id\': {\'length\': <bound method type.widget of <class \'gluon.sqlhtml.OptionsWidget\'>>, \'notnull\': False, \'raw_rname\': \'profession_id\', \'rname\': \'"profession_id"\', \'sortable\': 9, \'sql\': \'INTEGER REFERENCES "profession" ("id") ON DELETE CASCADE  \', \'type\': \'reference profession\', \'unique\': False}, \'years_exp\': {\'length\': <bound method type.widget of <class \'gluon.sqlhtml.OptionsWidget\'>>, \'notnull\': False, \'raw_rname\': \'years_exp\', \'rname\': \'"years_exp"\', \'sortable\': 10, \'sql\': \'INTEGER\', \'type\': \'integer\', \'unique\': False}})'
p277
sg87
S'save_dict'
p278
sa(dp279
g64
S'/System/Library/Frameworks/Python.framework/Versions/2.7/lib/python2.7/pickle.py'
p280
sg66
(dp281
S'save'
p282
S'<bound method Pickler.save of <pickle.Pickler instance>>'
p283
sS'v'
S'{\'length\': <bound method type.widget of <class \'gluon.sqlhtml.OptionsWidget\'>>, \'notnull\': False, \'raw_rname\': \'years_exp\', \'rname\': \'"years_exp"\', \'sortable\': 10, \'sql\': \'INTEGER\', \'type\': \'integer\', \'unique\': False}'
p284
ssg72
I663
sg73
(dp285
I658
S'        write = self.write'
p286
sI659
S''
sI660
S'        if not self.bin:'
p287
sI661
S'            for k, v in items:'
p288
sI662
S'                save(k)'
p289
sI663
S'                save(v)'
p290
sI664
S'                write(SETITEM)'
p291
sI665
S'            return'
p292
sI666
S''
sI667
S'        r = xrange(self._BATCHSIZE)'
p293
ssg85
S'(self=<pickle.Pickler instance>, items=<dictionary-itemiterator object>)'
p294
sg87
S'_batch_setitems'
p295
sa(dp296
g64
S'/System/Library/Frameworks/Python.framework/Versions/2.7/lib/python2.7/pickle.py'
p297
sg66
(dp298
S'self'
p299
S'<pickle.Pickler instance>'
p300
sS'obj'
p301
S'{\'length\': <bound method type.widget of <class \'gluon.sqlhtml.OptionsWidget\'>>, \'notnull\': False, \'raw_rname\': \'years_exp\', \'rname\': \'"years_exp"\', \'sortable\': 10, \'sql\': \'INTEGER\', \'type\': \'integer\', \'unique\': False}'
p302
sS'f'
S'<function save_dict>'
p303
ssg72
I286
sg73
(dp304
I288
S''
sI289
S'        # Check copy_reg.dispatch_table'
p305
sI290
S'        reduce = dispatch_table.get(t)'
p306
sI281
S''
sI282
S'        # Check the type dispatch table'
p307
sI283
S'        t = type(obj)'
p308
sI284
S'        f = self.dispatch.get(t)'
p309
sI285
S'        if f:'
p310
sI286
S'            f(self, obj) # Call unbound method with explicit self'
p311
sI287
S'            return'
p312
ssg85
S'(self=<pickle.Pickler instance>, obj={\'length\': <bound method type.widget of <class \'gluon.sqlhtml.OptionsWidget\'>>, \'notnull\': False, \'raw_rname\': \'years_exp\', \'rname\': \'"years_exp"\', \'sortable\': 10, \'sql\': \'INTEGER\', \'type\': \'integer\', \'unique\': False})'
p313
sg87
g256
sa(dp314
g64
S'/System/Library/Frameworks/Python.framework/Versions/2.7/lib/python2.7/pickle.py'
p315
sg66
(dp316
S'self._batch_setitems'
p317
S'<bound method Pickler._batch_setitems of <pickle.Pickler instance>>'
p318
sS'self'
p319
S'<pickle.Pickler instance>'
p320
sS'obj'
p321
S'{\'length\': <bound method type.widget of <class \'gluon.sqlhtml.OptionsWidget\'>>, \'notnull\': False, \'raw_rname\': \'years_exp\', \'rname\': \'"years_exp"\', \'sortable\': 10, \'sql\': \'INTEGER\', \'type\': \'integer\', \'unique\': False}'
p322
sS'obj.iteritems'
p323
S'<built-in method iteritems of dict object>'
p324
ssg72
I649
sg73
(dp325
I644
S'            write(EMPTY_DICT)'
p326
sI645
S"        else:   # proto 0 -- can't use EMPTY_DICT"
p327
sI646
S'            write(MARK + DICT)'
p328
sI647
S''
sI648
S'        self.memoize(obj)'
p329
sI649
S'        self._batch_setitems(obj.iteritems())'
p330
sI650
S''
sI651
S'    dispatch[DictionaryType] = save_dict'
p331
sI652
S'    if not PyStringMap is None:'
p332
sI653
S'        dispatch[PyStringMap] = save_dict'
p333
ssg85
S'(self=<pickle.Pickler instance>, obj={\'length\': <bound method type.widget of <class \'gluon.sqlhtml.OptionsWidget\'>>, \'notnull\': False, \'raw_rname\': \'years_exp\', \'rname\': \'"years_exp"\', \'sortable\': 10, \'sql\': \'INTEGER\', \'type\': \'integer\', \'unique\': False})'
p334
sg87
g278
sa(dp335
g64
S'/System/Library/Frameworks/Python.framework/Versions/2.7/lib/python2.7/pickle.py'
p336
sg66
(dp337
S'save'
p338
S'<bound method Pickler.save of <pickle.Pickler instance>>'
p339
sS'v'
S"<bound method type.widget of <class 'gluon.sqlhtml.OptionsWidget'>>"
p340
ssg72
I663
sg73
(dp341
I658
S'        write = self.write'
p342
sI659
S''
sI660
S'        if not self.bin:'
p343
sI661
S'            for k, v in items:'
p344
sI662
S'                save(k)'
p345
sI663
S'                save(v)'
p346
sI664
S'                write(SETITEM)'
p347
sI665
S'            return'
p348
sI666
S''
sI667
S'        r = xrange(self._BATCHSIZE)'
p349
ssg85
S'(self=<pickle.Pickler instance>, items=<dictionary-itemiterator object>)'
p350
sg87
g295
sa(dp351
g64
S'/System/Library/Frameworks/Python.framework/Versions/2.7/lib/python2.7/pickle.py'
p352
sg66
(dp353
S'self.proto'
p354
S'0'
sS'rv'
p355
g118
sS'reduce'
p356
S'<built-in method __reduce_ex__ of instancemethod object>'
p357
sS'self'
p358
S'<pickle.Pickler instance>'
p359
ssg72
I306
sg73
(dp360
I301
S'                return'
p361
sI302
S''
sI303
S'            # Check for a __reduce_ex__ method, fall back to __reduce__'
p362
sI304
S'            reduce = getattr(obj, "__reduce_ex__", None)'
p363
sI305
S'            if reduce:'
p364
sI306
S'                rv = reduce(self.proto)'
p365
sI307
S'            else:'
p366
sI308
S'                reduce = getattr(obj, "__reduce__", None)'
p367
sI309
S'                if reduce:'
p368
sI310
S'                    rv = reduce()'
p369
ssg85
S"(self=<pickle.Pickler instance>, obj=<bound method type.widget of <class 'gluon.sqlhtml.OptionsWidget'>>)"
p370
sg87
g256
sa(dp371
g64
S'/System/Library/Frameworks/Python.framework/Versions/2.7/lib/python2.7/copy_reg.py'
p372
sg66
(dp373
S'base.__name__'
p374
S"'instancemethod'"
p375
sS'base'
p376
S"<type 'instancemethod'>"
p377
sS'builtinTypeError'
p378
S"<type 'exceptions.TypeError'>"
p379
ssg72
I70
sg73
(dp380
I65
S'        base = object # not really reachable'
p381
sI66
S'    if base is object:'
p382
sI67
S'        state = None'
p383
sI68
S'    else:'
p384
sI69
S'        if base is self.__class__:'
p385
sI70
S'            raise TypeError, "can\'t pickle %s objects" % base.__name__'
p386
sI71
S'        state = base(self)'
p387
sI72
S'    args = (self.__class__, base, state)'
p388
sI73
S'    try:'
p389
sI74
S'        getstate = self.__getstate__'
p390
ssg85
S"(self=<bound method type.widget of <class 'gluon.sqlhtml.OptionsWidget'>>, proto=0)"
p391
sg87
S'_reduce_ex'
p392
sasS'pyver'
p393
S'Python 2.7.10: /usr/bin/python (prefix: /System/Library/Frameworks/Python.framework/Versions/2.7)'
p394
sS'session'
p395
g59
(S's\x1a\x00\x00\x00<div><table></table></div>'
tRp396
sS'etype'
p397
S"<type 'exceptions.TypeError'>"
p398
sS'date'
p399
S'Tue Aug 20 11:03:44 2019'
p400
sS'response'
p401
g59
(S's\xfb\x19\x00\x00<div><table><tr><td style="font-weight:bold;vertical-align:top;">body</td><td style="vertical-align:top;">:</td><td><div>&lt;cStringIO.StringO object at 0x111e172d0&gt;</div></td></tr><tr><td style="font-weight:bold;vertical-align:top;">cookies</td><td style="vertical-align:top;">:</td><td><div><table><tr><td style="font-weight:bold;vertical-align:top;">session_id_test</td><td style="vertical-align:top;">:</td><td><div>127.0.0.1-c23e73f6-a326-431b-8966-2ec3288ee8c7<table><tr><td style="font-weight:bold;vertical-align:top;">comment</td><td style="vertical-align:top;">:</td><td><div></div></td></tr><tr><td style="font-weight:bold;vertical-align:top;">domain</td><td style="vertical-align:top;">:</td><td><div></div></td></tr><tr><td style="font-weight:bold;vertical-align:top;">expires</td><td style="vertical-align:top;">:</td><td><div></div></td></tr><tr><td style="font-weight:bold;vertical-align:top;">httponly</td><td style="vertical-align:top;">:</td><td><div></div></td></tr><tr><td style="font-weight:bold;vertical-align:top;">max-age</td><td style="vertical-align:top;">:</td><td><div></div></td></tr><tr><td style="font-weight:bold;vertical-align:top;">path</td><td style="vertical-align:top;">:</td><td><div>/</div></td></tr><tr><td style="font-weight:bold;vertical-align:top;">secure</td><td style="vertical-align:top;">:</td><td><div></div></td></tr><tr><td style="font-weight:bold;vertical-align:top;">version</td><td style="vertical-align:top;">:</td><td><div></div></td></tr></table></div></td></tr></table></div></td></tr><tr><td style="font-weight:bold;vertical-align:top;">delimiters</td><td style="vertical-align:top;">:</td><td><div><table><tr><td><div>{{</div></td></tr><tr><td><div>}}</div></td></tr></table></div></td></tr><tr><td style="font-weight:bold;vertical-align:top;">files</td><td style="vertical-align:top;">:</td><td><div><table></table></div></td></tr><tr><td style="font-weight:bold;vertical-align:top;">flash</td><td style="vertical-align:top;">:</td><td><div></div></td></tr><tr><td style="font-weight:bold;vertical-align:top;">form_label_separator</td><td style="vertical-align:top;">:</td><td><div></div></td></tr><tr><td style="font-weight:bold;vertical-align:top;">formstyle</td><td style="vertical-align:top;">:</td><td><div>bootstrap4_inline</div></td></tr><tr><td style="font-weight:bold;vertical-align:top;">generic_patterns</td><td style="vertical-align:top;">:</td><td><div><table><tr><td><div>*</div></td></tr></table></div></td></tr><tr><td style="font-weight:bold;vertical-align:top;">google_analytics_id</td><td style="vertical-align:top;">:</td><td><div>None</div></td></tr><tr><td style="font-weight:bold;vertical-align:top;">headers</td><td style="vertical-align:top;">:</td><td><div><table><tr><td style="font-weight:bold;vertical-align:top;">X-Powered-By</td><td style="vertical-align:top;">:</td><td><div>web2py</div></td></tr></table></div></td></tr><tr><td style="font-weight:bold;vertical-align:top;">menu</td><td style="vertical-align:top;">:</td><td><div><table></table></div></td></tr><tr><td style="font-weight:bold;vertical-align:top;">meta</td><td style="vertical-align:top;">:</td><td><div><table><tr><td style="font-weight:bold;vertical-align:top;">author</td><td style="vertical-align:top;">:</td><td><div>Your Name &lt;you@example.com&gt;</div></td></tr><tr><td style="font-weight:bold;vertical-align:top;">description</td><td style="vertical-align:top;">:</td><td><div>a cool new app</div></td></tr><tr><td style="font-weight:bold;vertical-align:top;">generator</td><td style="vertical-align:top;">:</td><td><div>Web2py Web Framework</div></td></tr><tr><td style="font-weight:bold;vertical-align:top;">keywords</td><td style="vertical-align:top;">:</td><td><div><table><tr><td><div>web2py</div></td></tr><tr><td><div>python</div></td></tr><tr><td><div>framework</div></td></tr></table></div></td></tr></table></div></td></tr><tr><td style="font-weight:bold;vertical-align:top;">models_to_run</td><td style="vertical-align:top;">:</td><td><div><table><tr><td><div>^\\w+\\.py$</div></td></tr><tr><td><div>^employee/\\w+\\.py$</div></td></tr><tr><td><div>^employee/new/\\w+\\.py$</div></td></tr></table></div></td></tr><tr><td style="font-weight:bold;vertical-align:top;">postprocessing</td><td style="vertical-align:top;">:</td><td><div><table></table></div></td></tr><tr><td style="font-weight:bold;vertical-align:top;">session_client</td><td style="vertical-align:top;">:</td><td><div>127.0.0.1</div></td></tr><tr><td style="font-weight:bold;vertical-align:top;">session_cookie_compression_level</td><td style="vertical-align:top;">:</td><td><div>None</div></td></tr><tr><td style="font-weight:bold;vertical-align:top;">session_cookie_expires</td><td style="vertical-align:top;">:</td><td><div>None</div></td></tr><tr><td style="font-weight:bold;vertical-align:top;">session_data_name</td><td style="vertical-align:top;">:</td><td><div>session_data_test</div></td></tr><tr><td style="font-weight:bold;vertical-align:top;">session_file</td><td style="vertical-align:top;">:</td><td><div>None</div></td></tr><tr><td style="font-weight:bold;vertical-align:top;">session_filename</td><td style="vertical-align:top;">:</td><td><div>/Users/nic/Dev/web2py/applications/test/sessions/127.0.0.1-c23e73f6-a326-431b-8966-2ec3288ee8c7</div></td></tr><tr><td style="font-weight:bold;vertical-align:top;">session_hash</td><td style="vertical-align:top;">:</td><td><div>c0762cbf4baf7f9af97c051e7fcb8083</div></td></tr><tr><td style="font-weight:bold;vertical-align:top;">session_id</td><td style="vertical-align:top;">:</td><td><div>127.0.0.1-c23e73f6-a326-431b-8966-2ec3288ee8c7</div></td></tr><tr><td style="font-weight:bold;vertical-align:top;">session_id_name</td><td style="vertical-align:top;">:</td><td><div>session_id_test</div></td></tr><tr><td style="font-weight:bold;vertical-align:top;">session_masterapp</td><td style="vertical-align:top;">:</td><td><div>test</div></td></tr><tr><td style="font-weight:bold;vertical-align:top;">session_new</td><td style="vertical-align:top;">:</td><td><div>True</div></td></tr><tr><td style="font-weight:bold;vertical-align:top;">session_storage_type</td><td style="vertical-align:top;">:</td><td><div>file</div></td></tr><tr><td style="font-weight:bold;vertical-align:top;">show_toolbar</td><td style="vertical-align:top;">:</td><td><div>False</div></td></tr><tr><td style="font-weight:bold;vertical-align:top;">status</td><td style="vertical-align:top;">:</td><td><div>200</div></td></tr><tr><td style="font-weight:bold;vertical-align:top;">view</td><td style="vertical-align:top;">:</td><td><div>employee/new.html</div></td></tr></table></div>'
tRp402
sS'locals'
p403
(dp404
S'self'
p405
S"<bound method type.widget of <class 'gluon.sqlhtml.OptionsWidget'>>"
p406
sS'base'
p407
S"<type 'instancemethod'>"
p408
sS'proto'
p409
S'0'
sssS'traceback'
p410
S'Traceback (most recent call last):\n  File "/Users/nic/Dev/web2py/gluon/restricted.py", line 219, in restricted\n    exec(ccode, environment)\n  File "/Users/nic/Dev/web2py/applications/test/models/db_model.py", line 28, in <module>\n    format=\'%(first_name)s\',\n  File "/Users/nic/Dev/web2py/gluon/packages/dal/pydal/base.py", line 592, in define_table\n    table = self.lazy_define_table(tablename, *fields, **kwargs)\n  File "/Users/nic/Dev/web2py/gluon/packages/dal/pydal/base.py", line 626, in lazy_define_table\n    polymodel=polymodel)\n  File "/Users/nic/Dev/web2py/gluon/packages/dal/pydal/adapters/base.py", line 798, in create_table\n    return self.migrator.create_table(*args, **kwargs)\n  File "/Users/nic/Dev/web2py/gluon/packages/dal/pydal/migrator.py", line 290, in create_table\n    pickle.dump(sql_fields, tfile)\n  File "/System/Library/Frameworks/Python.framework/Versions/2.7/lib/python2.7/pickle.py", line 1370, in dump\n    Pickler(file, protocol).dump(obj)\n  File "/System/Library/Frameworks/Python.framework/Versions/2.7/lib/python2.7/pickle.py", line 224, in dump\n    self.save(obj)\n  File "/System/Library/Frameworks/Python.framework/Versions/2.7/lib/python2.7/pickle.py", line 286, in save\n    f(self, obj) # Call unbound method with explicit self\n  File "/System/Library/Frameworks/Python.framework/Versions/2.7/lib/python2.7/pickle.py", line 649, in save_dict\n    self._batch_setitems(obj.iteritems())\n  File "/System/Library/Frameworks/Python.framework/Versions/2.7/lib/python2.7/pickle.py", line 663, in _batch_setitems\n    save(v)\n  File "/System/Library/Frameworks/Python.framework/Versions/2.7/lib/python2.7/pickle.py", line 286, in save\n    f(self, obj) # Call unbound method with explicit self\n  File "/System/Library/Frameworks/Python.framework/Versions/2.7/lib/python2.7/pickle.py", line 649, in save_dict\n    self._batch_setitems(obj.iteritems())\n  File "/System/Library/Frameworks/Python.framework/Versions/2.7/lib/python2.7/pickle.py", line 663, in _batch_setitems\n    save(v)\n  File "/System/Library/Frameworks/Python.framework/Versions/2.7/lib/python2.7/pickle.py", line 306, in save\n    rv = reduce(self.proto)\n  File "/System/Library/Frameworks/Python.framework/Versions/2.7/lib/python2.7/copy_reg.py", line 70, in _reduce_ex\n    raise TypeError, "can\'t pickle %s objects" % base.__name__\nTypeError: can\'t pickle instancemethod objects\n'
p411
s.